
bufbomb:     file format elf32-i386


Disassembly of section .init:

08048840 <_init>:
 8048840:	53                   	push   %ebx
 8048841:	83 ec 08             	sub    $0x8,%esp
 8048844:	e8 87 02 00 00       	call   8048ad0 <__x86.get_pc_thunk.bx>
 8048849:	81 c3 9f 28 00 00    	add    $0x289f,%ebx
 804884f:	8b 83 fc ff ff ff    	mov    -0x4(%ebx),%eax
 8048855:	85 c0                	test   %eax,%eax
 8048857:	74 05                	je     804885e <_init+0x1e>
 8048859:	e8 f2 00 00 00       	call   8048950 <__gmon_start__@plt>
 804885e:	e8 dd 02 00 00       	call   8048b40 <frame_dummy>
 8048863:	e8 08 17 00 00       	call   8049f70 <__do_global_ctors_aux>
 8048868:	83 c4 08             	add    $0x8,%esp
 804886b:	5b                   	pop    %ebx
 804886c:	c3                   	ret    

Disassembly of section .plt:

08048870 <read@plt-0x10>:
 8048870:	ff 35 ec b0 04 08    	pushl  0x804b0ec
 8048876:	ff 25 f0 b0 04 08    	jmp    *0x804b0f0
 804887c:	00 00                	add    %al,(%eax)
	...

08048880 <read@plt>:
 8048880:	ff 25 f4 b0 04 08    	jmp    *0x804b0f4
 8048886:	68 00 00 00 00       	push   $0x0
 804888b:	e9 e0 ff ff ff       	jmp    8048870 <_init+0x30>

08048890 <srandom@plt>:
 8048890:	ff 25 f8 b0 04 08    	jmp    *0x804b0f8
 8048896:	68 08 00 00 00       	push   $0x8
 804889b:	e9 d0 ff ff ff       	jmp    8048870 <_init+0x30>

080488a0 <printf@plt>:
 80488a0:	ff 25 fc b0 04 08    	jmp    *0x804b0fc
 80488a6:	68 10 00 00 00       	push   $0x10
 80488ab:	e9 c0 ff ff ff       	jmp    8048870 <_init+0x30>

080488b0 <memcpy@plt>:
 80488b0:	ff 25 00 b1 04 08    	jmp    *0x804b100
 80488b6:	68 18 00 00 00       	push   $0x18
 80488bb:	e9 b0 ff ff ff       	jmp    8048870 <_init+0x30>

080488c0 <signal@plt>:
 80488c0:	ff 25 04 b1 04 08    	jmp    *0x804b104
 80488c6:	68 20 00 00 00       	push   $0x20
 80488cb:	e9 a0 ff ff ff       	jmp    8048870 <_init+0x30>

080488d0 <alarm@plt>:
 80488d0:	ff 25 08 b1 04 08    	jmp    *0x804b108
 80488d6:	68 28 00 00 00       	push   $0x28
 80488db:	e9 90 ff ff ff       	jmp    8048870 <_init+0x30>

080488e0 <_IO_getc@plt>:
 80488e0:	ff 25 0c b1 04 08    	jmp    *0x804b10c
 80488e6:	68 30 00 00 00       	push   $0x30
 80488eb:	e9 80 ff ff ff       	jmp    8048870 <_init+0x30>

080488f0 <fwrite@plt>:
 80488f0:	ff 25 10 b1 04 08    	jmp    *0x804b110
 80488f6:	68 38 00 00 00       	push   $0x38
 80488fb:	e9 70 ff ff ff       	jmp    8048870 <_init+0x30>

08048900 <bcopy@plt>:
 8048900:	ff 25 14 b1 04 08    	jmp    *0x804b114
 8048906:	68 40 00 00 00       	push   $0x40
 804890b:	e9 60 ff ff ff       	jmp    8048870 <_init+0x30>

08048910 <strcpy@plt>:
 8048910:	ff 25 18 b1 04 08    	jmp    *0x804b118
 8048916:	68 48 00 00 00       	push   $0x48
 804891b:	e9 50 ff ff ff       	jmp    8048870 <_init+0x30>

08048920 <getpid@plt>:
 8048920:	ff 25 1c b1 04 08    	jmp    *0x804b11c
 8048926:	68 50 00 00 00       	push   $0x50
 804892b:	e9 40 ff ff ff       	jmp    8048870 <_init+0x30>

08048930 <gethostname@plt>:
 8048930:	ff 25 20 b1 04 08    	jmp    *0x804b120
 8048936:	68 58 00 00 00       	push   $0x58
 804893b:	e9 30 ff ff ff       	jmp    8048870 <_init+0x30>

08048940 <puts@plt>:
 8048940:	ff 25 24 b1 04 08    	jmp    *0x804b124
 8048946:	68 60 00 00 00       	push   $0x60
 804894b:	e9 20 ff ff ff       	jmp    8048870 <_init+0x30>

08048950 <__gmon_start__@plt>:
 8048950:	ff 25 28 b1 04 08    	jmp    *0x804b128
 8048956:	68 68 00 00 00       	push   $0x68
 804895b:	e9 10 ff ff ff       	jmp    8048870 <_init+0x30>

08048960 <exit@plt>:
 8048960:	ff 25 2c b1 04 08    	jmp    *0x804b12c
 8048966:	68 70 00 00 00       	push   $0x70
 804896b:	e9 00 ff ff ff       	jmp    8048870 <_init+0x30>

08048970 <srand@plt>:
 8048970:	ff 25 30 b1 04 08    	jmp    *0x804b130
 8048976:	68 78 00 00 00       	push   $0x78
 804897b:	e9 f0 fe ff ff       	jmp    8048870 <_init+0x30>

08048980 <mmap@plt>:
 8048980:	ff 25 34 b1 04 08    	jmp    *0x804b134
 8048986:	68 80 00 00 00       	push   $0x80
 804898b:	e9 e0 fe ff ff       	jmp    8048870 <_init+0x30>

08048990 <__libc_start_main@plt>:
 8048990:	ff 25 38 b1 04 08    	jmp    *0x804b138
 8048996:	68 88 00 00 00       	push   $0x88
 804899b:	e9 d0 fe ff ff       	jmp    8048870 <_init+0x30>

080489a0 <write@plt>:
 80489a0:	ff 25 3c b1 04 08    	jmp    *0x804b13c
 80489a6:	68 90 00 00 00       	push   $0x90
 80489ab:	e9 c0 fe ff ff       	jmp    8048870 <_init+0x30>

080489b0 <getopt@plt>:
 80489b0:	ff 25 40 b1 04 08    	jmp    *0x804b140
 80489b6:	68 98 00 00 00       	push   $0x98
 80489bb:	e9 b0 fe ff ff       	jmp    8048870 <_init+0x30>

080489c0 <strcasecmp@plt>:
 80489c0:	ff 25 44 b1 04 08    	jmp    *0x804b144
 80489c6:	68 a0 00 00 00       	push   $0xa0
 80489cb:	e9 a0 fe ff ff       	jmp    8048870 <_init+0x30>

080489d0 <__isoc99_sscanf@plt>:
 80489d0:	ff 25 48 b1 04 08    	jmp    *0x804b148
 80489d6:	68 a8 00 00 00       	push   $0xa8
 80489db:	e9 90 fe ff ff       	jmp    8048870 <_init+0x30>

080489e0 <memset@plt>:
 80489e0:	ff 25 4c b1 04 08    	jmp    *0x804b14c
 80489e6:	68 b0 00 00 00       	push   $0xb0
 80489eb:	e9 80 fe ff ff       	jmp    8048870 <_init+0x30>

080489f0 <__strdup@plt>:
 80489f0:	ff 25 50 b1 04 08    	jmp    *0x804b150
 80489f6:	68 b8 00 00 00       	push   $0xb8
 80489fb:	e9 70 fe ff ff       	jmp    8048870 <_init+0x30>

08048a00 <__errno_location@plt>:
 8048a00:	ff 25 54 b1 04 08    	jmp    *0x804b154
 8048a06:	68 c0 00 00 00       	push   $0xc0
 8048a0b:	e9 60 fe ff ff       	jmp    8048870 <_init+0x30>

08048a10 <rand@plt>:
 8048a10:	ff 25 58 b1 04 08    	jmp    *0x804b158
 8048a16:	68 c8 00 00 00       	push   $0xc8
 8048a1b:	e9 50 fe ff ff       	jmp    8048870 <_init+0x30>

08048a20 <munmap@plt>:
 8048a20:	ff 25 5c b1 04 08    	jmp    *0x804b15c
 8048a26:	68 d0 00 00 00       	push   $0xd0
 8048a2b:	e9 40 fe ff ff       	jmp    8048870 <_init+0x30>

08048a30 <sprintf@plt>:
 8048a30:	ff 25 60 b1 04 08    	jmp    *0x804b160
 8048a36:	68 d8 00 00 00       	push   $0xd8
 8048a3b:	e9 30 fe ff ff       	jmp    8048870 <_init+0x30>

08048a40 <socket@plt>:
 8048a40:	ff 25 64 b1 04 08    	jmp    *0x804b164
 8048a46:	68 e0 00 00 00       	push   $0xe0
 8048a4b:	e9 20 fe ff ff       	jmp    8048870 <_init+0x30>

08048a50 <random@plt>:
 8048a50:	ff 25 68 b1 04 08    	jmp    *0x804b168
 8048a56:	68 e8 00 00 00       	push   $0xe8
 8048a5b:	e9 10 fe ff ff       	jmp    8048870 <_init+0x30>

08048a60 <gethostbyname@plt>:
 8048a60:	ff 25 6c b1 04 08    	jmp    *0x804b16c
 8048a66:	68 f0 00 00 00       	push   $0xf0
 8048a6b:	e9 00 fe ff ff       	jmp    8048870 <_init+0x30>

08048a70 <connect@plt>:
 8048a70:	ff 25 70 b1 04 08    	jmp    *0x804b170
 8048a76:	68 f8 00 00 00       	push   $0xf8
 8048a7b:	e9 f0 fd ff ff       	jmp    8048870 <_init+0x30>

08048a80 <close@plt>:
 8048a80:	ff 25 74 b1 04 08    	jmp    *0x804b174
 8048a86:	68 00 01 00 00       	push   $0x100
 8048a8b:	e9 e0 fd ff ff       	jmp    8048870 <_init+0x30>

08048a90 <calloc@plt>:
 8048a90:	ff 25 78 b1 04 08    	jmp    *0x804b178
 8048a96:	68 08 01 00 00       	push   $0x108
 8048a9b:	e9 d0 fd ff ff       	jmp    8048870 <_init+0x30>

Disassembly of section .text:

08048aa0 <_start>:
 8048aa0:	31 ed                	xor    %ebp,%ebp
 8048aa2:	5e                   	pop    %esi
 8048aa3:	89 e1                	mov    %esp,%ecx
 8048aa5:	83 e4 f0             	and    $0xfffffff0,%esp
 8048aa8:	50                   	push   %eax
 8048aa9:	54                   	push   %esp
 8048aaa:	52                   	push   %edx
 8048aab:	68 60 9f 04 08       	push   $0x8049f60
 8048ab0:	68 f0 9e 04 08       	push   $0x8049ef0
 8048ab5:	51                   	push   %ecx
 8048ab6:	56                   	push   %esi
 8048ab7:	68 d5 8f 04 08       	push   $0x8048fd5
 8048abc:	e8 cf fe ff ff       	call   8048990 <__libc_start_main@plt>
 8048ac1:	f4                   	hlt    
 8048ac2:	66 90                	xchg   %ax,%ax
 8048ac4:	66 90                	xchg   %ax,%ax
 8048ac6:	66 90                	xchg   %ax,%ax
 8048ac8:	66 90                	xchg   %ax,%ax
 8048aca:	66 90                	xchg   %ax,%ax
 8048acc:	66 90                	xchg   %ax,%ax
 8048ace:	66 90                	xchg   %ax,%ax

08048ad0 <__x86.get_pc_thunk.bx>:
 8048ad0:	8b 1c 24             	mov    (%esp),%ebx
 8048ad3:	c3                   	ret    
 8048ad4:	66 90                	xchg   %ax,%ax
 8048ad6:	66 90                	xchg   %ax,%ax
 8048ad8:	66 90                	xchg   %ax,%ax
 8048ada:	66 90                	xchg   %ax,%ax
 8048adc:	66 90                	xchg   %ax,%ax
 8048ade:	66 90                	xchg   %ax,%ax

08048ae0 <__do_global_dtors_aux>:
 8048ae0:	55                   	push   %ebp
 8048ae1:	89 e5                	mov    %esp,%ebp
 8048ae3:	53                   	push   %ebx
 8048ae4:	83 ec 04             	sub    $0x4,%esp
 8048ae7:	80 3d cc c1 04 08 00 	cmpb   $0x0,0x804c1cc
 8048aee:	75 3f                	jne    8048b2f <__do_global_dtors_aux+0x4f>
 8048af0:	a1 d0 c1 04 08       	mov    0x804c1d0,%eax
 8048af5:	bb 0c b0 04 08       	mov    $0x804b00c,%ebx
 8048afa:	81 eb 08 b0 04 08    	sub    $0x804b008,%ebx
 8048b00:	c1 fb 02             	sar    $0x2,%ebx
 8048b03:	83 eb 01             	sub    $0x1,%ebx
 8048b06:	39 d8                	cmp    %ebx,%eax
 8048b08:	73 1e                	jae    8048b28 <__do_global_dtors_aux+0x48>
 8048b0a:	8d b6 00 00 00 00    	lea    0x0(%esi),%esi
 8048b10:	83 c0 01             	add    $0x1,%eax
 8048b13:	a3 d0 c1 04 08       	mov    %eax,0x804c1d0
 8048b18:	ff 14 85 08 b0 04 08 	call   *0x804b008(,%eax,4)
 8048b1f:	a1 d0 c1 04 08       	mov    0x804c1d0,%eax
 8048b24:	39 d8                	cmp    %ebx,%eax
 8048b26:	72 e8                	jb     8048b10 <__do_global_dtors_aux+0x30>
 8048b28:	c6 05 cc c1 04 08 01 	movb   $0x1,0x804c1cc
 8048b2f:	83 c4 04             	add    $0x4,%esp
 8048b32:	5b                   	pop    %ebx
 8048b33:	5d                   	pop    %ebp
 8048b34:	c3                   	ret    
 8048b35:	8d 74 26 00          	lea    0x0(%esi,%eiz,1),%esi
 8048b39:	8d bc 27 00 00 00 00 	lea    0x0(%edi,%eiz,1),%edi

08048b40 <frame_dummy>:
 8048b40:	55                   	push   %ebp
 8048b41:	89 e5                	mov    %esp,%ebp
 8048b43:	83 ec 18             	sub    $0x18,%esp
 8048b46:	a1 10 b0 04 08       	mov    0x804b010,%eax
 8048b4b:	85 c0                	test   %eax,%eax
 8048b4d:	74 12                	je     8048b61 <frame_dummy+0x21>
 8048b4f:	b8 00 00 00 00       	mov    $0x0,%eax
 8048b54:	85 c0                	test   %eax,%eax
 8048b56:	74 09                	je     8048b61 <frame_dummy+0x21>
 8048b58:	c7 04 24 10 b0 04 08 	movl   $0x804b010,(%esp)
 8048b5f:	ff d0                	call   *%eax
 8048b61:	c9                   	leave  
 8048b62:	c3                   	ret    
 8048b63:	66 90                	xchg   %ax,%ax
 8048b65:	66 90                	xchg   %ax,%ax
 8048b67:	66 90                	xchg   %ax,%ax
 8048b69:	66 90                	xchg   %ax,%ax
 8048b6b:	66 90                	xchg   %ax,%ax
 8048b6d:	66 90                	xchg   %ax,%ax
 8048b6f:	90                   	nop

08048b70 <usage>:
 8048b70:	55                   	push   %ebp
 8048b71:	89 e5                	mov    %esp,%ebp
 8048b73:	83 ec 18             	sub    $0x18,%esp
 8048b76:	89 44 24 04          	mov    %eax,0x4(%esp)
 8048b7a:	c7 04 24 c0 9f 04 08 	movl   $0x8049fc0,(%esp)
 8048b81:	e8 1a fd ff ff       	call   80488a0 <printf@plt>
 8048b86:	c7 04 24 de 9f 04 08 	movl   $0x8049fde,(%esp)
 8048b8d:	e8 ae fd ff ff       	call   8048940 <puts@plt>
 8048b92:	c7 04 24 f4 9f 04 08 	movl   $0x8049ff4,(%esp)
 8048b99:	e8 a2 fd ff ff       	call   8048940 <puts@plt>
 8048b9e:	c7 04 24 fc a0 04 08 	movl   $0x804a0fc,(%esp)
 8048ba5:	e8 96 fd ff ff       	call   8048940 <puts@plt>
 8048baa:	c7 04 24 38 a1 04 08 	movl   $0x804a138,(%esp)
 8048bb1:	e8 8a fd ff ff       	call   8048940 <puts@plt>
 8048bb6:	c7 04 24 00 00 00 00 	movl   $0x0,(%esp)
 8048bbd:	e8 9e fd ff ff       	call   8048960 <exit@plt>

08048bc2 <illegalhandler>:
 8048bc2:	55                   	push   %ebp
 8048bc3:	89 e5                	mov    %esp,%ebp
 8048bc5:	83 ec 18             	sub    $0x18,%esp
 8048bc8:	c7 04 24 60 a1 04 08 	movl   $0x804a160,(%esp)
 8048bcf:	e8 6c fd ff ff       	call   8048940 <puts@plt>
 8048bd4:	c7 04 24 0d a0 04 08 	movl   $0x804a00d,(%esp)
 8048bdb:	e8 60 fd ff ff       	call   8048940 <puts@plt>
 8048be0:	c7 04 24 00 00 00 00 	movl   $0x0,(%esp)
 8048be7:	e8 74 fd ff ff       	call   8048960 <exit@plt>

08048bec <seghandler>:
 8048bec:	55                   	push   %ebp
 8048bed:	89 e5                	mov    %esp,%ebp
 8048bef:	83 ec 18             	sub    $0x18,%esp
 8048bf2:	c7 04 24 8c a1 04 08 	movl   $0x804a18c,(%esp)
 8048bf9:	e8 42 fd ff ff       	call   8048940 <puts@plt>
 8048bfe:	c7 04 24 0d a0 04 08 	movl   $0x804a00d,(%esp)
 8048c05:	e8 36 fd ff ff       	call   8048940 <puts@plt>
 8048c0a:	c7 04 24 00 00 00 00 	movl   $0x0,(%esp)
 8048c11:	e8 4a fd ff ff       	call   8048960 <exit@plt>

08048c16 <bushandler>:
 8048c16:	55                   	push   %ebp
 8048c17:	89 e5                	mov    %esp,%ebp
 8048c19:	83 ec 18             	sub    $0x18,%esp
 8048c1c:	c7 04 24 b4 a1 04 08 	movl   $0x804a1b4,(%esp)
 8048c23:	e8 18 fd ff ff       	call   8048940 <puts@plt>
 8048c28:	c7 04 24 0d a0 04 08 	movl   $0x804a00d,(%esp)
 8048c2f:	e8 0c fd ff ff       	call   8048940 <puts@plt>
 8048c34:	c7 04 24 00 00 00 00 	movl   $0x0,(%esp)
 8048c3b:	e8 20 fd ff ff       	call   8048960 <exit@plt>

08048c40 <smoke>:
 8048c40:	55                   	push   %ebp
 8048c41:	89 e5                	mov    %esp,%ebp
 8048c43:	83 ec 18             	sub    $0x18,%esp
 8048c46:	c7 04 24 23 a0 04 08 	movl   $0x804a023,(%esp)
 8048c4d:	e8 ee fc ff ff       	call   8048940 <puts@plt>
 8048c52:	c7 04 24 00 00 00 00 	movl   $0x0,(%esp)
 8048c59:	e8 9d 06 00 00       	call   80492fb <validate>
 8048c5e:	c7 04 24 00 00 00 00 	movl   $0x0,(%esp)
 8048c65:	e8 f6 fc ff ff       	call   8048960 <exit@plt>

08048c6a <fizz>:
 8048c6a:	55                   	push   %ebp
 8048c6b:	89 e5                	mov    %esp,%ebp
 8048c6d:	83 ec 18             	sub    $0x18,%esp
 8048c70:	8b 45 08             	mov    0x8(%ebp),%eax
 8048c73:	3b 05 e4 c1 04 08    	cmp    0x804c1e4,%eax
 8048c79:	75 1e                	jne    8048c99 <fizz+0x2f>
 8048c7b:	89 44 24 04          	mov    %eax,0x4(%esp)
 8048c7f:	c7 04 24 3e a0 04 08 	movl   $0x804a03e,(%esp)
 8048c86:	e8 15 fc ff ff       	call   80488a0 <printf@plt>
 8048c8b:	c7 04 24 01 00 00 00 	movl   $0x1,(%esp)
 8048c92:	e8 64 06 00 00       	call   80492fb <validate>
 8048c97:	eb 10                	jmp    8048ca9 <fizz+0x3f>
 8048c99:	89 44 24 04          	mov    %eax,0x4(%esp)
 8048c9d:	c7 04 24 d4 a1 04 08 	movl   $0x804a1d4,(%esp)
 8048ca4:	e8 f7 fb ff ff       	call   80488a0 <printf@plt>
 8048ca9:	c7 04 24 00 00 00 00 	movl   $0x0,(%esp)
 8048cb0:	e8 ab fc ff ff       	call   8048960 <exit@plt>

08048cb5 <bang>:
 8048cb5:	55                   	push   %ebp
 8048cb6:	89 e5                	mov    %esp,%ebp
 8048cb8:	83 ec 18             	sub    $0x18,%esp
 8048cbb:	a1 ec c1 04 08       	mov    0x804c1ec,%eax
 8048cc0:	3b 05 e4 c1 04 08    	cmp    0x804c1e4,%eax
 8048cc6:	75 1e                	jne    8048ce6 <bang+0x31>
 8048cc8:	89 44 24 04          	mov    %eax,0x4(%esp)
 8048ccc:	c7 04 24 f4 a1 04 08 	movl   $0x804a1f4,(%esp)
 8048cd3:	e8 c8 fb ff ff       	call   80488a0 <printf@plt>
 8048cd8:	c7 04 24 02 00 00 00 	movl   $0x2,(%esp)
 8048cdf:	e8 17 06 00 00       	call   80492fb <validate>
 8048ce4:	eb 10                	jmp    8048cf6 <bang+0x41>
 8048ce6:	89 44 24 04          	mov    %eax,0x4(%esp)
 8048cea:	c7 04 24 5c a0 04 08 	movl   $0x804a05c,(%esp)
 8048cf1:	e8 aa fb ff ff       	call   80488a0 <printf@plt>
 8048cf6:	c7 04 24 00 00 00 00 	movl   $0x0,(%esp)
 8048cfd:	e8 5e fc ff ff       	call   8048960 <exit@plt>

08048d02 <Gets>:
 8048d02:	55                   	push   %ebp
 8048d03:	89 e5                	mov    %esp,%ebp
 8048d05:	57                   	push   %edi
 8048d06:	56                   	push   %esi
 8048d07:	53                   	push   %ebx
 8048d08:	83 ec 2c             	sub    $0x2c,%esp
 8048d0b:	8b 75 08             	mov    0x8(%ebp),%esi
 8048d0e:	c7 05 f0 c1 04 08 00 	movl   $0x0,0x804c1f0
 8048d15:	00 00 00 
 8048d18:	89 f3                	mov    %esi,%ebx
 8048d1a:	eb 55                	jmp    8048d71 <Gets+0x6f>
 8048d1c:	88 45 d8             	mov    %al,-0x28(%ebp)
 8048d1f:	88 03                	mov    %al,(%ebx)
 8048d21:	83 c3 01             	add    $0x1,%ebx
 8048d24:	a1 f0 c1 04 08       	mov    0x804c1f0,%eax
 8048d29:	3d ff 03 00 00       	cmp    $0x3ff,%eax
 8048d2e:	7f 41                	jg     8048d71 <Gets+0x6f>
 8048d30:	8d 14 40             	lea    (%eax,%eax,2),%edx
 8048d33:	0f b6 4d d8          	movzbl -0x28(%ebp),%ecx
 8048d37:	c0 f9 04             	sar    $0x4,%cl
 8048d3a:	89 cf                	mov    %ecx,%edi
 8048d3c:	83 e7 0f             	and    $0xf,%edi
 8048d3f:	0f b6 bf 18 a3 04 08 	movzbl 0x804a318(%edi),%edi
 8048d46:	89 f9                	mov    %edi,%ecx
 8048d48:	88 8a 20 c2 04 08    	mov    %cl,0x804c220(%edx)
 8048d4e:	0f b6 4d d8          	movzbl -0x28(%ebp),%ecx
 8048d52:	83 e1 0f             	and    $0xf,%ecx
 8048d55:	0f b6 89 18 a3 04 08 	movzbl 0x804a318(%ecx),%ecx
 8048d5c:	88 8a 21 c2 04 08    	mov    %cl,0x804c221(%edx)
 8048d62:	c6 82 22 c2 04 08 20 	movb   $0x20,0x804c222(%edx)
 8048d69:	83 c0 01             	add    $0x1,%eax
 8048d6c:	a3 f0 c1 04 08       	mov    %eax,0x804c1f0
 8048d71:	a1 e0 c1 04 08       	mov    0x804c1e0,%eax
 8048d76:	89 04 24             	mov    %eax,(%esp)
 8048d79:	e8 62 fb ff ff       	call   80488e0 <_IO_getc@plt>
 8048d7e:	83 f8 ff             	cmp    $0xffffffff,%eax
 8048d81:	74 05                	je     8048d88 <Gets+0x86>
 8048d83:	83 f8 0a             	cmp    $0xa,%eax
 8048d86:	75 94                	jne    8048d1c <Gets+0x1a>
 8048d88:	c6 03 00             	movb   $0x0,(%ebx)
 8048d8b:	a1 f0 c1 04 08       	mov    0x804c1f0,%eax
 8048d90:	c6 84 40 20 c2 04 08 	movb   $0x0,0x804c220(%eax,%eax,2)
 8048d97:	00 
 8048d98:	89 f0                	mov    %esi,%eax
 8048d9a:	83 c4 2c             	add    $0x2c,%esp
 8048d9d:	5b                   	pop    %ebx
 8048d9e:	5e                   	pop    %esi
 8048d9f:	5f                   	pop    %edi
 8048da0:	5d                   	pop    %ebp
 8048da1:	c3                   	ret    

08048da2 <uniqueval>:
 8048da2:	55                   	push   %ebp
 8048da3:	89 e5                	mov    %esp,%ebp
 8048da5:	83 ec 18             	sub    $0x18,%esp
 8048da8:	e8 73 fb ff ff       	call   8048920 <getpid@plt>
 8048dad:	89 04 24             	mov    %eax,(%esp)
 8048db0:	e8 db fa ff ff       	call   8048890 <srandom@plt>
 8048db5:	e8 96 fc ff ff       	call   8048a50 <random@plt>
 8048dba:	c9                   	leave  
 8048dbb:	c3                   	ret    

08048dbc <testn>:
 8048dbc:	55                   	push   %ebp
 8048dbd:	89 e5                	mov    %esp,%ebp
 8048dbf:	53                   	push   %ebx
 8048dc0:	83 ec 24             	sub    $0x24,%esp
 8048dc3:	e8 da ff ff ff       	call   8048da2 <uniqueval>
 8048dc8:	89 45 f4             	mov    %eax,-0xc(%ebp)
 8048dcb:	e8 ed 03 00 00       	call   80491bd <getbufn>
 8048dd0:	89 c3                	mov    %eax,%ebx
 8048dd2:	e8 cb ff ff ff       	call   8048da2 <uniqueval>
 8048dd7:	8b 55 f4             	mov    -0xc(%ebp),%edx
 8048dda:	39 d0                	cmp    %edx,%eax
 8048ddc:	74 0e                	je     8048dec <testn+0x30>
 8048dde:	c7 04 24 1c a2 04 08 	movl   $0x804a21c,(%esp)
 8048de5:	e8 56 fb ff ff       	call   8048940 <puts@plt>
 8048dea:	eb 36                	jmp    8048e22 <testn+0x66>
 8048dec:	3b 1d e4 c1 04 08    	cmp    0x804c1e4,%ebx
 8048df2:	75 1e                	jne    8048e12 <testn+0x56>
 8048df4:	89 5c 24 04          	mov    %ebx,0x4(%esp)
 8048df8:	c7 04 24 48 a2 04 08 	movl   $0x804a248,(%esp)
 8048dff:	e8 9c fa ff ff       	call   80488a0 <printf@plt>
 8048e04:	c7 04 24 04 00 00 00 	movl   $0x4,(%esp)
 8048e0b:	e8 eb 04 00 00       	call   80492fb <validate>
 8048e10:	eb 10                	jmp    8048e22 <testn+0x66>
 8048e12:	89 5c 24 04          	mov    %ebx,0x4(%esp)
 8048e16:	c7 04 24 7a a0 04 08 	movl   $0x804a07a,(%esp)
 8048e1d:	e8 7e fa ff ff       	call   80488a0 <printf@plt>
 8048e22:	83 c4 24             	add    $0x24,%esp
 8048e25:	5b                   	pop    %ebx
 8048e26:	5d                   	pop    %ebp
 8048e27:	c3                   	ret    

08048e28 <test>:
 8048e28:	55                   	push   %ebp
 8048e29:	89 e5                	mov    %esp,%ebp
 8048e2b:	53                   	push   %ebx
 8048e2c:	83 ec 24             	sub    $0x24,%esp
 8048e2f:	e8 6e ff ff ff       	call   8048da2 <uniqueval>
 8048e34:	89 45 f4             	mov    %eax,-0xc(%ebp)
 8048e37:	e8 69 03 00 00       	call   80491a5 <getbuf>
 8048e3c:	89 c3                	mov    %eax,%ebx
 8048e3e:	e8 5f ff ff ff       	call   8048da2 <uniqueval>
 8048e43:	8b 55 f4             	mov    -0xc(%ebp),%edx
 8048e46:	39 d0                	cmp    %edx,%eax
 8048e48:	74 0e                	je     8048e58 <test+0x30>
 8048e4a:	c7 04 24 1c a2 04 08 	movl   $0x804a21c,(%esp)
 8048e51:	e8 ea fa ff ff       	call   8048940 <puts@plt>
 8048e56:	eb 36                	jmp    8048e8e <test+0x66>
 8048e58:	3b 1d e4 c1 04 08    	cmp    0x804c1e4,%ebx
 8048e5e:	75 1e                	jne    8048e7e <test+0x56>
 8048e60:	89 5c 24 04          	mov    %ebx,0x4(%esp)
 8048e64:	c7 04 24 96 a0 04 08 	movl   $0x804a096,(%esp)
 8048e6b:	e8 30 fa ff ff       	call   80488a0 <printf@plt>
 8048e70:	c7 04 24 03 00 00 00 	movl   $0x3,(%esp)
 8048e77:	e8 7f 04 00 00       	call   80492fb <validate>
 8048e7c:	eb 10                	jmp    8048e8e <test+0x66>
 8048e7e:	89 5c 24 04          	mov    %ebx,0x4(%esp)
 8048e82:	c7 04 24 b3 a0 04 08 	movl   $0x804a0b3,(%esp)
 8048e89:	e8 12 fa ff ff       	call   80488a0 <printf@plt>
 8048e8e:	83 c4 24             	add    $0x24,%esp
 8048e91:	5b                   	pop    %ebx
 8048e92:	5d                   	pop    %ebp
 8048e93:	c3                   	ret    

08048e94 <launch>:
 8048e94:	55                   	push   %ebp
 8048e95:	89 e5                	mov    %esp,%ebp
 8048e97:	53                   	push   %ebx
 8048e98:	83 ec 54             	sub    $0x54,%esp
 8048e9b:	89 c3                	mov    %eax,%ebx
 8048e9d:	8d 45 b8             	lea    -0x48(%ebp),%eax
 8048ea0:	25 f0 3f 00 00       	and    $0x3ff0,%eax
 8048ea5:	8d 54 10 1e          	lea    0x1e(%eax,%edx,1),%edx
 8048ea9:	83 e2 f0             	and    $0xfffffff0,%edx
 8048eac:	29 d4                	sub    %edx,%esp
 8048eae:	8d 54 24 1b          	lea    0x1b(%esp),%edx
 8048eb2:	83 e2 f0             	and    $0xfffffff0,%edx
 8048eb5:	89 44 24 08          	mov    %eax,0x8(%esp)
 8048eb9:	c7 44 24 04 f4 00 00 	movl   $0xf4,0x4(%esp)
 8048ec0:	00 
 8048ec1:	89 14 24             	mov    %edx,(%esp)
 8048ec4:	e8 17 fb ff ff       	call   80489e0 <memset@plt>
 8048ec9:	c7 04 24 ce a0 04 08 	movl   $0x804a0ce,(%esp)
 8048ed0:	e8 cb f9 ff ff       	call   80488a0 <printf@plt>
 8048ed5:	85 db                	test   %ebx,%ebx
 8048ed7:	74 09                	je     8048ee2 <launch+0x4e>
 8048ed9:	e8 de fe ff ff       	call   8048dbc <testn>
 8048ede:	66 90                	xchg   %ax,%ax
 8048ee0:	eb 05                	jmp    8048ee7 <launch+0x53>
 8048ee2:	e8 41 ff ff ff       	call   8048e28 <test>
 8048ee7:	83 3d e8 c1 04 08 00 	cmpl   $0x0,0x804c1e8
 8048eee:	75 16                	jne    8048f06 <launch+0x72>
 8048ef0:	c7 04 24 0d a0 04 08 	movl   $0x804a00d,(%esp)
 8048ef7:	e8 44 fa ff ff       	call   8048940 <puts@plt>
 8048efc:	c7 05 e8 c1 04 08 00 	movl   $0x0,0x804c1e8
 8048f03:	00 00 00 
 8048f06:	8b 5d fc             	mov    -0x4(%ebp),%ebx
 8048f09:	c9                   	leave  
 8048f0a:	c3                   	ret    

08048f0b <launcher>:
 8048f0b:	55                   	push   %ebp
 8048f0c:	89 e5                	mov    %esp,%ebp
 8048f0e:	83 ec 28             	sub    $0x28,%esp
 8048f11:	8b 45 08             	mov    0x8(%ebp),%eax
 8048f14:	a3 f4 c1 04 08       	mov    %eax,0x804c1f4
 8048f19:	8b 45 0c             	mov    0xc(%ebp),%eax
 8048f1c:	a3 f8 c1 04 08       	mov    %eax,0x804c1f8
 8048f21:	c7 44 24 14 00 00 00 	movl   $0x0,0x14(%esp)
 8048f28:	00 
 8048f29:	c7 44 24 10 00 00 00 	movl   $0x0,0x10(%esp)
 8048f30:	00 
 8048f31:	c7 44 24 0c 32 01 00 	movl   $0x132,0xc(%esp)
 8048f38:	00 
 8048f39:	c7 44 24 08 07 00 00 	movl   $0x7,0x8(%esp)
 8048f40:	00 
 8048f41:	c7 44 24 04 00 00 10 	movl   $0x100000,0x4(%esp)
 8048f48:	00 
 8048f49:	c7 04 24 00 60 58 55 	movl   $0x55586000,(%esp)
 8048f50:	e8 2b fa ff ff       	call   8048980 <mmap@plt>
 8048f55:	3d 00 60 58 55       	cmp    $0x55586000,%eax
 8048f5a:	74 31                	je     8048f8d <launcher+0x82>
 8048f5c:	a1 c0 c1 04 08       	mov    0x804c1c0,%eax
 8048f61:	89 44 24 0c          	mov    %eax,0xc(%esp)
 8048f65:	c7 44 24 08 47 00 00 	movl   $0x47,0x8(%esp)
 8048f6c:	00 
 8048f6d:	c7 44 24 04 01 00 00 	movl   $0x1,0x4(%esp)
 8048f74:	00 
 8048f75:	c7 04 24 68 a2 04 08 	movl   $0x804a268,(%esp)
 8048f7c:	e8 6f f9 ff ff       	call   80488f0 <fwrite@plt>
 8048f81:	c7 04 24 01 00 00 00 	movl   $0x1,(%esp)
 8048f88:	e8 d3 f9 ff ff       	call   8048960 <exit@plt>
 8048f8d:	c7 05 00 c2 04 08 f8 	movl   $0x55685ff8,0x804c200
 8048f94:	5f 68 55 
 8048f97:	ba f8 5f 68 55       	mov    $0x55685ff8,%edx
 8048f9c:	89 e0                	mov    %esp,%eax
 8048f9e:	89 d4                	mov    %edx,%esp
 8048fa0:	89 c2                	mov    %eax,%edx
 8048fa2:	89 15 fc c1 04 08    	mov    %edx,0x804c1fc
 8048fa8:	8b 15 f8 c1 04 08    	mov    0x804c1f8,%edx
 8048fae:	a1 f4 c1 04 08       	mov    0x804c1f4,%eax
 8048fb3:	e8 dc fe ff ff       	call   8048e94 <launch>
 8048fb8:	a1 fc c1 04 08       	mov    0x804c1fc,%eax
 8048fbd:	89 c4                	mov    %eax,%esp
 8048fbf:	c7 44 24 04 00 00 10 	movl   $0x100000,0x4(%esp)
 8048fc6:	00 
 8048fc7:	c7 04 24 00 60 58 55 	movl   $0x55586000,(%esp)
 8048fce:	e8 4d fa ff ff       	call   8048a20 <munmap@plt>
 8048fd3:	c9                   	leave  
 8048fd4:	c3                   	ret    

08048fd5 <main>:
 8048fd5:	55                   	push   %ebp
 8048fd6:	89 e5                	mov    %esp,%ebp
 8048fd8:	83 e4 f0             	and    $0xfffffff0,%esp
 8048fdb:	57                   	push   %edi
 8048fdc:	56                   	push   %esi
 8048fdd:	53                   	push   %ebx
 8048fde:	83 ec 24             	sub    $0x24,%esp
 8048fe1:	8b 75 08             	mov    0x8(%ebp),%esi
 8048fe4:	8b 5d 0c             	mov    0xc(%ebp),%ebx
 8048fe7:	c7 44 24 04 ec 8b 04 	movl   $0x8048bec,0x4(%esp)
 8048fee:	08 
 8048fef:	c7 04 24 0b 00 00 00 	movl   $0xb,(%esp)
 8048ff6:	e8 c5 f8 ff ff       	call   80488c0 <signal@plt>
 8048ffb:	c7 44 24 04 16 8c 04 	movl   $0x8048c16,0x4(%esp)
 8049002:	08 
 8049003:	c7 04 24 07 00 00 00 	movl   $0x7,(%esp)
 804900a:	e8 b1 f8 ff ff       	call   80488c0 <signal@plt>
 804900f:	c7 44 24 04 c2 8b 04 	movl   $0x8048bc2,0x4(%esp)
 8049016:	08 
 8049017:	c7 04 24 04 00 00 00 	movl   $0x4,(%esp)
 804901e:	e8 9d f8 ff ff       	call   80488c0 <signal@plt>
 8049023:	a1 c4 c1 04 08       	mov    0x804c1c4,%eax
 8049028:	a3 e0 c1 04 08       	mov    %eax,0x804c1e0
 804902d:	bf 01 00 00 00       	mov    $0x1,%edi
 8049032:	c7 44 24 1c 00 00 00 	movl   $0x0,0x1c(%esp)
 8049039:	00 
 804903a:	eb 69                	jmp    80490a5 <main+0xd0>
 804903c:	83 e8 67             	sub    $0x67,%eax
 804903f:	3c 0e                	cmp    $0xe,%al
 8049041:	77 4c                	ja     804908f <main+0xba>
 8049043:	0f b6 c0             	movzbl %al,%eax
 8049046:	ff 24 85 dc a2 04 08 	jmp    *0x804a2dc(,%eax,4)
 804904d:	8b 03                	mov    (%ebx),%eax
 804904f:	e8 1c fb ff ff       	call   8048b70 <usage>
 8049054:	eb 4f                	jmp    80490a5 <main+0xd0>
 8049056:	a1 c8 c1 04 08       	mov    0x804c1c8,%eax
 804905b:	89 04 24             	mov    %eax,(%esp)
 804905e:	e8 8d f9 ff ff       	call   80489f0 <__strdup@plt>
 8049063:	a3 d4 c1 04 08       	mov    %eax,0x804c1d4
 8049068:	89 04 24             	mov    %eax,(%esp)
 804906b:	e8 47 0e 00 00       	call   8049eb7 <gencookie>
 8049070:	a3 e4 c1 04 08       	mov    %eax,0x804c1e4
 8049075:	eb 2e                	jmp    80490a5 <main+0xd0>
 8049077:	c7 05 d8 c1 04 08 01 	movl   $0x1,0x804c1d8
 804907e:	00 00 00 
 8049081:	eb 22                	jmp    80490a5 <main+0xd0>
 8049083:	c7 05 dc c1 04 08 01 	movl   $0x1,0x804c1dc
 804908a:	00 00 00 
 804908d:	eb 16                	jmp    80490a5 <main+0xd0>
 804908f:	8b 03                	mov    (%ebx),%eax
 8049091:	e8 da fa ff ff       	call   8048b70 <usage>
 8049096:	eb 0d                	jmp    80490a5 <main+0xd0>
 8049098:	bf 05 00 00 00       	mov    $0x5,%edi
 804909d:	c7 44 24 1c 01 00 00 	movl   $0x1,0x1c(%esp)
 80490a4:	00 
 80490a5:	c7 44 24 08 db a0 04 	movl   $0x804a0db,0x8(%esp)
 80490ac:	08 
 80490ad:	89 5c 24 04          	mov    %ebx,0x4(%esp)
 80490b1:	89 34 24             	mov    %esi,(%esp)
 80490b4:	e8 f7 f8 ff ff       	call   80489b0 <getopt@plt>
 80490b9:	3c ff                	cmp    $0xff,%al
 80490bb:	0f 85 7b ff ff ff    	jne    804903c <main+0x67>
 80490c1:	83 3d d4 c1 04 08 00 	cmpl   $0x0,0x804c1d4
 80490c8:	75 19                	jne    80490e3 <main+0x10e>
 80490ca:	8b 03                	mov    (%ebx),%eax
 80490cc:	89 44 24 04          	mov    %eax,0x4(%esp)
 80490d0:	c7 04 24 b0 a2 04 08 	movl   $0x804a2b0,(%esp)
 80490d7:	e8 c4 f7 ff ff       	call   80488a0 <printf@plt>
 80490dc:	8b 03                	mov    (%ebx),%eax
 80490de:	e8 8d fa ff ff       	call   8048b70 <usage>
 80490e3:	e8 f3 00 00 00       	call   80491db <initialize_bomb>
 80490e8:	a1 d4 c1 04 08       	mov    0x804c1d4,%eax
 80490ed:	89 44 24 04          	mov    %eax,0x4(%esp)
 80490f1:	c7 04 24 e2 a0 04 08 	movl   $0x804a0e2,(%esp)
 80490f8:	e8 a3 f7 ff ff       	call   80488a0 <printf@plt>
 80490fd:	a1 e4 c1 04 08       	mov    0x804c1e4,%eax
 8049102:	89 44 24 04          	mov    %eax,0x4(%esp)
 8049106:	c7 04 24 ee a0 04 08 	movl   $0x804a0ee,(%esp)
 804910d:	e8 8e f7 ff ff       	call   80488a0 <printf@plt>
 8049112:	a1 e4 c1 04 08       	mov    0x804c1e4,%eax
 8049117:	89 04 24             	mov    %eax,(%esp)
 804911a:	e8 71 f7 ff ff       	call   8048890 <srandom@plt>
 804911f:	e8 2c f9 ff ff       	call   8048a50 <random@plt>
 8049124:	25 f0 0f 00 00       	and    $0xff0,%eax
 8049129:	05 00 01 00 00       	add    $0x100,%eax
 804912e:	89 44 24 18          	mov    %eax,0x18(%esp)
 8049132:	c7 44 24 04 04 00 00 	movl   $0x4,0x4(%esp)
 8049139:	00 
 804913a:	89 3c 24             	mov    %edi,(%esp)
 804913d:	e8 4e f9 ff ff       	call   8048a90 <calloc@plt>
 8049142:	89 c6                	mov    %eax,%esi
 8049144:	c7 00 00 00 00 00    	movl   $0x0,(%eax)
 804914a:	83 ff 01             	cmp    $0x1,%edi
 804914d:	7e 20                	jle    804916f <main+0x19a>
 804914f:	bb 01 00 00 00       	mov    $0x1,%ebx
 8049154:	e8 f7 f8 ff ff       	call   8048a50 <random@plt>
 8049159:	25 f0 00 00 00       	and    $0xf0,%eax
 804915e:	ba 80 00 00 00       	mov    $0x80,%edx
 8049163:	29 c2                	sub    %eax,%edx
 8049165:	89 14 9e             	mov    %edx,(%esi,%ebx,4)
 8049168:	83 c3 01             	add    $0x1,%ebx
 804916b:	39 fb                	cmp    %edi,%ebx
 804916d:	7c e5                	jl     8049154 <main+0x17f>
 804916f:	85 ff                	test   %edi,%edi
 8049171:	7e 23                	jle    8049196 <main+0x1c1>
 8049173:	bb 00 00 00 00       	mov    $0x0,%ebx
 8049178:	8b 44 24 18          	mov    0x18(%esp),%eax
 804917c:	03 04 9e             	add    (%esi,%ebx,4),%eax
 804917f:	89 44 24 04          	mov    %eax,0x4(%esp)
 8049183:	8b 44 24 1c          	mov    0x1c(%esp),%eax
 8049187:	89 04 24             	mov    %eax,(%esp)
 804918a:	e8 7c fd ff ff       	call   8048f0b <launcher>
 804918f:	83 c3 01             	add    $0x1,%ebx
 8049192:	39 fb                	cmp    %edi,%ebx
 8049194:	7c e2                	jl     8049178 <main+0x1a3>
 8049196:	b8 00 00 00 00       	mov    $0x0,%eax
 804919b:	83 c4 24             	add    $0x24,%esp
 804919e:	5b                   	pop    %ebx
 804919f:	5e                   	pop    %esi
 80491a0:	5f                   	pop    %edi
 80491a1:	89 ec                	mov    %ebp,%esp
 80491a3:	5d                   	pop    %ebp
 80491a4:	c3                   	ret    

080491a5 <getbuf>:
 80491a5:	55                   	push   %ebp
 80491a6:	89 e5                	mov    %esp,%ebp
 80491a8:	83 ec 38             	sub    $0x38,%esp
 80491ab:	8d 45 d8             	lea    -0x28(%ebp),%eax
 80491ae:	89 04 24             	mov    %eax,(%esp)
 80491b1:	e8 4c fb ff ff       	call   8048d02 <Gets>
 80491b6:	b8 01 00 00 00       	mov    $0x1,%eax
 80491bb:	c9                   	leave  
 80491bc:	c3                   	ret    

080491bd <getbufn>:
 80491bd:	55                   	push   %ebp
 80491be:	89 e5                	mov    %esp,%ebp
 80491c0:	81 ec 18 02 00 00    	sub    $0x218,%esp
 80491c6:	8d 85 f8 fd ff ff    	lea    -0x208(%ebp),%eax
 80491cc:	89 04 24             	mov    %eax,(%esp)
 80491cf:	e8 2e fb ff ff       	call   8048d02 <Gets>
 80491d4:	b8 01 00 00 00       	mov    $0x1,%eax
 80491d9:	c9                   	leave  
 80491da:	c3                   	ret    

080491db <initialize_bomb>:
 80491db:	55                   	push   %ebp
 80491dc:	89 e5                	mov    %esp,%ebp
 80491de:	56                   	push   %esi
 80491df:	53                   	push   %ebx
 80491e0:	81 ec 10 24 00 00    	sub    $0x2410,%esp
 80491e6:	83 3d dc c1 04 08 00 	cmpl   $0x0,0x804c1dc
 80491ed:	74 0c                	je     80491fb <initialize_bomb+0x20>
 80491ef:	c7 04 24 ff ff ff ff 	movl   $0xffffffff,(%esp)
 80491f6:	e8 00 0a 00 00       	call   8049bfb <init_timeout>
 80491fb:	83 3d d8 c1 04 08 00 	cmpl   $0x0,0x804c1d8
 8049202:	0f 84 e9 00 00 00    	je     80492f1 <initialize_bomb+0x116>
 8049208:	c7 44 24 04 00 04 00 	movl   $0x400,0x4(%esp)
 804920f:	00 
 8049210:	8d 85 f8 fb ff ff    	lea    -0x408(%ebp),%eax
 8049216:	89 04 24             	mov    %eax,(%esp)
 8049219:	e8 12 f7 ff ff       	call   8048930 <gethostname@plt>
 804921e:	85 c0                	test   %eax,%eax
 8049220:	75 19                	jne    804923b <initialize_bomb+0x60>
 8049222:	a1 a0 b1 04 08       	mov    0x804b1a0,%eax
 8049227:	bb 00 00 00 00       	mov    $0x0,%ebx
 804922c:	8d b5 f8 fb ff ff    	lea    -0x408(%ebp),%esi
 8049232:	85 c0                	test   %eax,%eax
 8049234:	75 1d                	jne    8049253 <initialize_bomb+0x78>
 8049236:	e9 95 00 00 00       	jmp    80492d0 <initialize_bomb+0xf5>
 804923b:	c7 04 24 28 a3 04 08 	movl   $0x804a328,(%esp)
 8049242:	e8 f9 f6 ff ff       	call   8048940 <puts@plt>
 8049247:	c7 04 24 08 00 00 00 	movl   $0x8,(%esp)
 804924e:	e8 0d f7 ff ff       	call   8048960 <exit@plt>
 8049253:	89 74 24 04          	mov    %esi,0x4(%esp)
 8049257:	89 04 24             	mov    %eax,(%esp)
 804925a:	e8 61 f7 ff ff       	call   80489c0 <strcasecmp@plt>
 804925f:	85 c0                	test   %eax,%eax
 8049261:	74 10                	je     8049273 <initialize_bomb+0x98>
 8049263:	83 c3 01             	add    $0x1,%ebx
 8049266:	8b 04 9d a0 b1 04 08 	mov    0x804b1a0(,%ebx,4),%eax
 804926d:	85 c0                	test   %eax,%eax
 804926f:	75 e2                	jne    8049253 <initialize_bomb+0x78>
 8049271:	eb 5d                	jmp    80492d0 <initialize_bomb+0xf5>
 8049273:	8d 85 f8 db ff ff    	lea    -0x2408(%ebp),%eax
 8049279:	89 04 24             	mov    %eax,(%esp)
 804927c:	e8 b4 09 00 00       	call   8049c35 <init_driver>
 8049281:	85 c0                	test   %eax,%eax
 8049283:	79 6c                	jns    80492f1 <initialize_bomb+0x116>
 8049285:	eb 27                	jmp    80492ae <initialize_bomb+0xd3>
 8049287:	bb 00 00 00 00       	mov    $0x0,%ebx
 804928c:	89 04 24             	mov    %eax,(%esp)
 804928f:	e8 ac f6 ff ff       	call   8048940 <puts@plt>
 8049294:	83 c3 01             	add    $0x1,%ebx
 8049297:	8b 04 9d a0 b1 04 08 	mov    0x804b1a0(,%ebx,4),%eax
 804929e:	85 c0                	test   %eax,%eax
 80492a0:	75 ea                	jne    804928c <initialize_bomb+0xb1>
 80492a2:	c7 04 24 08 00 00 00 	movl   $0x8,(%esp)
 80492a9:	e8 b2 f6 ff ff       	call   8048960 <exit@plt>
 80492ae:	8d 85 f8 db ff ff    	lea    -0x2408(%ebp),%eax
 80492b4:	89 44 24 04          	mov    %eax,0x4(%esp)
 80492b8:	c7 04 24 96 a4 04 08 	movl   $0x804a496,(%esp)
 80492bf:	e8 dc f5 ff ff       	call   80488a0 <printf@plt>
 80492c4:	c7 04 24 08 00 00 00 	movl   $0x8,(%esp)
 80492cb:	e8 90 f6 ff ff       	call   8048960 <exit@plt>
 80492d0:	8d 85 f8 fb ff ff    	lea    -0x408(%ebp),%eax
 80492d6:	89 44 24 04          	mov    %eax,0x4(%esp)
 80492da:	c7 04 24 60 a3 04 08 	movl   $0x804a360,(%esp)
 80492e1:	e8 ba f5 ff ff       	call   80488a0 <printf@plt>
 80492e6:	a1 a0 b1 04 08       	mov    0x804b1a0,%eax
 80492eb:	85 c0                	test   %eax,%eax
 80492ed:	75 98                	jne    8049287 <initialize_bomb+0xac>
 80492ef:	eb b1                	jmp    80492a2 <initialize_bomb+0xc7>
 80492f1:	81 c4 10 24 00 00    	add    $0x2410,%esp
 80492f7:	5b                   	pop    %ebx
 80492f8:	5e                   	pop    %esi
 80492f9:	5d                   	pop    %ebp
 80492fa:	c3                   	ret    

080492fb <validate>:
 80492fb:	55                   	push   %ebp
 80492fc:	89 e5                	mov    %esp,%ebp
 80492fe:	81 ec 28 40 00 00    	sub    $0x4028,%esp
 8049304:	89 5d f8             	mov    %ebx,-0x8(%ebp)
 8049307:	89 7d fc             	mov    %edi,-0x4(%ebp)
 804930a:	8b 5d 08             	mov    0x8(%ebp),%ebx
 804930d:	83 3d d4 c1 04 08 00 	cmpl   $0x0,0x804c1d4
 8049314:	75 11                	jne    8049327 <validate+0x2c>
 8049316:	c7 04 24 9c a3 04 08 	movl   $0x804a39c,(%esp)
 804931d:	e8 1e f6 ff ff       	call   8048940 <puts@plt>
 8049322:	e9 10 01 00 00       	jmp    8049437 <validate+0x13c>
 8049327:	83 fb 04             	cmp    $0x4,%ebx
 804932a:	76 11                	jbe    804933d <validate+0x42>
 804932c:	c7 04 24 c8 a3 04 08 	movl   $0x804a3c8,(%esp)
 8049333:	e8 08 f6 ff ff       	call   8048940 <puts@plt>
 8049338:	e9 fa 00 00 00       	jmp    8049437 <validate+0x13c>
 804933d:	c7 05 e8 c1 04 08 01 	movl   $0x1,0x804c1e8
 8049344:	00 00 00 
 8049347:	8b 04 9d a0 c1 04 08 	mov    0x804c1a0(,%ebx,4),%eax
 804934e:	83 e8 01             	sub    $0x1,%eax
 8049351:	89 04 9d a0 c1 04 08 	mov    %eax,0x804c1a0(,%ebx,4)
 8049358:	85 c0                	test   %eax,%eax
 804935a:	7e 11                	jle    804936d <validate+0x72>
 804935c:	c7 04 24 ab a4 04 08 	movl   $0x804a4ab,(%esp)
 8049363:	e8 d8 f5 ff ff       	call   8048940 <puts@plt>
 8049368:	e9 ca 00 00 00       	jmp    8049437 <validate+0x13c>
 804936d:	c7 04 24 b6 a4 04 08 	movl   $0x804a4b6,(%esp)
 8049374:	e8 c7 f5 ff ff       	call   8048940 <puts@plt>
 8049379:	83 3d d8 c1 04 08 00 	cmpl   $0x0,0x804c1d8
 8049380:	0f 84 a5 00 00 00    	je     804942b <validate+0x130>
 8049386:	bf 20 c2 04 08       	mov    $0x804c220,%edi
 804938b:	b8 00 00 00 00       	mov    $0x0,%eax
 8049390:	b9 ff ff ff ff       	mov    $0xffffffff,%ecx
 8049395:	f2 ae                	repnz scas %es:(%edi),%al
 8049397:	f7 d1                	not    %ecx
 8049399:	83 c1 1f             	add    $0x1f,%ecx
 804939c:	81 f9 00 20 00 00    	cmp    $0x2000,%ecx
 80493a2:	76 11                	jbe    80493b5 <validate+0xba>
 80493a4:	c7 04 24 f0 a3 04 08 	movl   $0x804a3f0,(%esp)
 80493ab:	e8 90 f5 ff ff       	call   8048940 <puts@plt>
 80493b0:	e9 82 00 00 00       	jmp    8049437 <validate+0x13c>
 80493b5:	c7 44 24 10 20 c2 04 	movl   $0x804c220,0x10(%esp)
 80493bc:	08 
 80493bd:	a1 e4 c1 04 08       	mov    0x804c1e4,%eax
 80493c2:	89 44 24 0c          	mov    %eax,0xc(%esp)
 80493c6:	89 5c 24 08          	mov    %ebx,0x8(%esp)
 80493ca:	c7 44 24 04 bc a4 04 	movl   $0x804a4bc,0x4(%esp)
 80493d1:	08 
 80493d2:	8d 9d f8 df ff ff    	lea    -0x2008(%ebp),%ebx
 80493d8:	89 1c 24             	mov    %ebx,(%esp)
 80493db:	e8 50 f6 ff ff       	call   8048a30 <sprintf@plt>
 80493e0:	8d 85 f8 bf ff ff    	lea    -0x4008(%ebp),%eax
 80493e6:	89 44 24 0c          	mov    %eax,0xc(%esp)
 80493ea:	c7 44 24 08 00 00 00 	movl   $0x0,0x8(%esp)
 80493f1:	00 
 80493f2:	89 5c 24 04          	mov    %ebx,0x4(%esp)
 80493f6:	a1 d4 c1 04 08       	mov    0x804c1d4,%eax
 80493fb:	89 04 24             	mov    %eax,(%esp)
 80493fe:	e8 cf 09 00 00       	call   8049dd2 <driver_post>
 8049403:	85 c0                	test   %eax,%eax
 8049405:	75 0e                	jne    8049415 <validate+0x11a>
 8049407:	c7 04 24 28 a4 04 08 	movl   $0x804a428,(%esp)
 804940e:	e8 2d f5 ff ff       	call   8048940 <puts@plt>
 8049413:	eb 16                	jmp    804942b <validate+0x130>
 8049415:	8d 85 f8 bf ff ff    	lea    -0x4008(%ebp),%eax
 804941b:	89 44 24 04          	mov    %eax,0x4(%esp)
 804941f:	c7 04 24 58 a4 04 08 	movl   $0x804a458,(%esp)
 8049426:	e8 75 f4 ff ff       	call   80488a0 <printf@plt>
 804942b:	c7 04 24 c5 a4 04 08 	movl   $0x804a4c5,(%esp)
 8049432:	e8 09 f5 ff ff       	call   8048940 <puts@plt>
 8049437:	8b 5d f8             	mov    -0x8(%ebp),%ebx
 804943a:	8b 7d fc             	mov    -0x4(%ebp),%edi
 804943d:	89 ec                	mov    %ebp,%esp
 804943f:	5d                   	pop    %ebp
 8049440:	c3                   	ret    
 8049441:	66 90                	xchg   %ax,%ax
 8049443:	66 90                	xchg   %ax,%ax
 8049445:	66 90                	xchg   %ax,%ax
 8049447:	66 90                	xchg   %ax,%ax
 8049449:	66 90                	xchg   %ax,%ax
 804944b:	66 90                	xchg   %ax,%ax
 804944d:	66 90                	xchg   %ax,%ax
 804944f:	90                   	nop

08049450 <rio_readlineb>:
 8049450:	55                   	push   %ebp
 8049451:	89 e5                	mov    %esp,%ebp
 8049453:	57                   	push   %edi
 8049454:	56                   	push   %esi
 8049455:	53                   	push   %ebx
 8049456:	83 ec 3c             	sub    $0x3c,%esp
 8049459:	89 c3                	mov    %eax,%ebx
 804945b:	89 4d cc             	mov    %ecx,-0x34(%ebp)
 804945e:	89 55 d0             	mov    %edx,-0x30(%ebp)
 8049461:	c7 45 d4 01 00 00 00 	movl   $0x1,-0x2c(%ebp)
 8049468:	8d 78 0c             	lea    0xc(%eax),%edi
 804946b:	83 f9 01             	cmp    $0x1,%ecx
 804946e:	77 40                	ja     80494b0 <rio_readlineb+0x60>
 8049470:	e9 b0 00 00 00       	jmp    8049525 <rio_readlineb+0xd5>
 8049475:	c7 44 24 08 00 20 00 	movl   $0x2000,0x8(%esp)
 804947c:	00 
 804947d:	89 7c 24 04          	mov    %edi,0x4(%esp)
 8049481:	8b 03                	mov    (%ebx),%eax
 8049483:	89 04 24             	mov    %eax,(%esp)
 8049486:	e8 f5 f3 ff ff       	call   8048880 <read@plt>
 804948b:	89 43 04             	mov    %eax,0x4(%ebx)
 804948e:	85 c0                	test   %eax,%eax
 8049490:	79 13                	jns    80494a5 <rio_readlineb+0x55>
 8049492:	e8 69 f5 ff ff       	call   8048a00 <__errno_location@plt>
 8049497:	83 38 04             	cmpl   $0x4,(%eax)
 804949a:	74 14                	je     80494b0 <rio_readlineb+0x60>
 804949c:	8d 74 26 00          	lea    0x0(%esi,%eiz,1),%esi
 80494a0:	e9 91 00 00 00       	jmp    8049536 <rio_readlineb+0xe6>
 80494a5:	85 c0                	test   %eax,%eax
 80494a7:	0f 84 90 00 00 00    	je     804953d <rio_readlineb+0xed>
 80494ad:	89 7b 08             	mov    %edi,0x8(%ebx)
 80494b0:	8b 73 04             	mov    0x4(%ebx),%esi
 80494b3:	85 f6                	test   %esi,%esi
 80494b5:	7e be                	jle    8049475 <rio_readlineb+0x25>
 80494b7:	85 f6                	test   %esi,%esi
 80494b9:	0f 85 88 00 00 00    	jne    8049547 <rio_readlineb+0xf7>
 80494bf:	8b 43 08             	mov    0x8(%ebx),%eax
 80494c2:	89 45 c8             	mov    %eax,-0x38(%ebp)
 80494c5:	89 74 24 08          	mov    %esi,0x8(%esp)
 80494c9:	89 44 24 04          	mov    %eax,0x4(%esp)
 80494cd:	8d 55 e7             	lea    -0x19(%ebp),%edx
 80494d0:	89 14 24             	mov    %edx,(%esp)
 80494d3:	e8 d8 f3 ff ff       	call   80488b0 <memcpy@plt>
 80494d8:	8b 45 c8             	mov    -0x38(%ebp),%eax
 80494db:	01 f0                	add    %esi,%eax
 80494dd:	89 43 08             	mov    %eax,0x8(%ebx)
 80494e0:	c7 43 04 00 00 00 00 	movl   $0x0,0x4(%ebx)
 80494e7:	83 fe 01             	cmp    $0x1,%esi
 80494ea:	75 15                	jne    8049501 <rio_readlineb+0xb1>
 80494ec:	0f b6 45 e7          	movzbl -0x19(%ebp),%eax
 80494f0:	8b 55 d0             	mov    -0x30(%ebp),%edx
 80494f3:	88 02                	mov    %al,(%edx)
 80494f5:	83 c2 01             	add    $0x1,%edx
 80494f8:	89 55 d0             	mov    %edx,-0x30(%ebp)
 80494fb:	3c 0a                	cmp    $0xa,%al
 80494fd:	75 1a                	jne    8049519 <rio_readlineb+0xc9>
 80494ff:	eb 24                	jmp    8049525 <rio_readlineb+0xd5>
 8049501:	8b 55 d4             	mov    -0x2c(%ebp),%edx
 8049504:	b8 ff ff ff ff       	mov    $0xffffffff,%eax
 8049509:	85 f6                	test   %esi,%esi
 804950b:	75 21                	jne    804952e <rio_readlineb+0xde>
 804950d:	b8 00 00 00 00       	mov    $0x0,%eax
 8049512:	83 fa 01             	cmp    $0x1,%edx
 8049515:	75 0e                	jne    8049525 <rio_readlineb+0xd5>
 8049517:	eb 15                	jmp    804952e <rio_readlineb+0xde>
 8049519:	83 45 d4 01          	addl   $0x1,-0x2c(%ebp)
 804951d:	8b 45 d4             	mov    -0x2c(%ebp),%eax
 8049520:	39 45 cc             	cmp    %eax,-0x34(%ebp)
 8049523:	77 8b                	ja     80494b0 <rio_readlineb+0x60>
 8049525:	8b 55 d0             	mov    -0x30(%ebp),%edx
 8049528:	c6 02 00             	movb   $0x0,(%edx)
 804952b:	8b 45 d4             	mov    -0x2c(%ebp),%eax
 804952e:	83 c4 3c             	add    $0x3c,%esp
 8049531:	5b                   	pop    %ebx
 8049532:	5e                   	pop    %esi
 8049533:	5f                   	pop    %edi
 8049534:	5d                   	pop    %ebp
 8049535:	c3                   	ret    
 8049536:	be ff ff ff ff       	mov    $0xffffffff,%esi
 804953b:	eb 05                	jmp    8049542 <rio_readlineb+0xf2>
 804953d:	be 00 00 00 00       	mov    $0x0,%esi
 8049542:	8b 55 d4             	mov    -0x2c(%ebp),%edx
 8049545:	eb bd                	jmp    8049504 <rio_readlineb+0xb4>
 8049547:	8b 43 08             	mov    0x8(%ebx),%eax
 804954a:	0f b6 10             	movzbl (%eax),%edx
 804954d:	88 55 e7             	mov    %dl,-0x19(%ebp)
 8049550:	83 c0 01             	add    $0x1,%eax
 8049553:	89 43 08             	mov    %eax,0x8(%ebx)
 8049556:	83 ee 01             	sub    $0x1,%esi
 8049559:	89 73 04             	mov    %esi,0x4(%ebx)
 804955c:	eb 8e                	jmp    80494ec <rio_readlineb+0x9c>

0804955e <sigalrm_handler>:
 804955e:	55                   	push   %ebp
 804955f:	89 e5                	mov    %esp,%ebp
 8049561:	83 ec 18             	sub    $0x18,%esp
 8049564:	c7 44 24 04 02 00 00 	movl   $0x2,0x4(%esp)
 804956b:	00 
 804956c:	c7 04 24 94 a6 04 08 	movl   $0x804a694,(%esp)
 8049573:	e8 28 f3 ff ff       	call   80488a0 <printf@plt>
 8049578:	c7 04 24 01 00 00 00 	movl   $0x1,(%esp)
 804957f:	e8 dc f3 ff ff       	call   8048960 <exit@plt>

08049584 <submitr>:
 8049584:	55                   	push   %ebp
 8049585:	89 e5                	mov    %esp,%ebp
 8049587:	57                   	push   %edi
 8049588:	56                   	push   %esi
 8049589:	53                   	push   %ebx
 804958a:	81 ec 6c a0 00 00    	sub    $0xa06c,%esp
 8049590:	8b 75 08             	mov    0x8(%ebp),%esi
 8049593:	c7 85 c8 7f ff ff 00 	movl   $0x0,-0x8038(%ebp)
 804959a:	00 00 00 
 804959d:	c7 44 24 08 00 00 00 	movl   $0x0,0x8(%esp)
 80495a4:	00 
 80495a5:	c7 44 24 04 01 00 00 	movl   $0x1,0x4(%esp)
 80495ac:	00 
 80495ad:	c7 04 24 02 00 00 00 	movl   $0x2,(%esp)
 80495b4:	e8 87 f4 ff ff       	call   8048a40 <socket@plt>
 80495b9:	89 85 b0 5f ff ff    	mov    %eax,-0xa050(%ebp)
 80495bf:	85 c0                	test   %eax,%eax
 80495c1:	79 1b                	jns    80495de <submitr+0x5a>
 80495c3:	b8 b8 a6 04 08       	mov    $0x804a6b8,%eax
 80495c8:	b9 26 00 00 00       	mov    $0x26,%ecx
 80495cd:	8b 7d 20             	mov    0x20(%ebp),%edi
 80495d0:	89 c6                	mov    %eax,%esi
 80495d2:	f3 a4                	rep movsb %ds:(%esi),%es:(%edi)
 80495d4:	b8 ff ff ff ff       	mov    $0xffffffff,%eax
 80495d9:	e9 bf 05 00 00       	jmp    8049b9d <submitr+0x619>
 80495de:	89 34 24             	mov    %esi,(%esp)
 80495e1:	e8 7a f4 ff ff       	call   8048a60 <gethostbyname@plt>
 80495e6:	85 c0                	test   %eax,%eax
 80495e8:	75 2f                	jne    8049619 <submitr+0x95>
 80495ea:	89 74 24 08          	mov    %esi,0x8(%esp)
 80495ee:	c7 44 24 04 e0 a6 04 	movl   $0x804a6e0,0x4(%esp)
 80495f5:	08 
 80495f6:	8b 45 20             	mov    0x20(%ebp),%eax
 80495f9:	89 04 24             	mov    %eax,(%esp)
 80495fc:	e8 2f f4 ff ff       	call   8048a30 <sprintf@plt>
 8049601:	8b 95 b0 5f ff ff    	mov    -0xa050(%ebp),%edx
 8049607:	89 14 24             	mov    %edx,(%esp)
 804960a:	e8 71 f4 ff ff       	call   8048a80 <close@plt>
 804960f:	b8 ff ff ff ff       	mov    $0xffffffff,%eax
 8049614:	e9 84 05 00 00       	jmp    8049b9d <submitr+0x619>
 8049619:	8d 5d d8             	lea    -0x28(%ebp),%ebx
 804961c:	c7 45 d8 00 00 00 00 	movl   $0x0,-0x28(%ebp)
 8049623:	c7 45 dc 00 00 00 00 	movl   $0x0,-0x24(%ebp)
 804962a:	c7 45 e0 00 00 00 00 	movl   $0x0,-0x20(%ebp)
 8049631:	c7 45 e4 00 00 00 00 	movl   $0x0,-0x1c(%ebp)
 8049638:	66 c7 45 d8 02 00    	movw   $0x2,-0x28(%ebp)
 804963e:	8b 50 0c             	mov    0xc(%eax),%edx
 8049641:	89 54 24 08          	mov    %edx,0x8(%esp)
 8049645:	8d 55 dc             	lea    -0x24(%ebp),%edx
 8049648:	89 54 24 04          	mov    %edx,0x4(%esp)
 804964c:	8b 40 10             	mov    0x10(%eax),%eax
 804964f:	8b 00                	mov    (%eax),%eax
 8049651:	89 04 24             	mov    %eax,(%esp)
 8049654:	e8 a7 f2 ff ff       	call   8048900 <bcopy@plt>
 8049659:	0f b7 45 0c          	movzwl 0xc(%ebp),%eax
 804965d:	66 c1 c8 08          	ror    $0x8,%ax
 8049661:	66 89 45 da          	mov    %ax,-0x26(%ebp)
 8049665:	c7 44 24 08 10 00 00 	movl   $0x10,0x8(%esp)
 804966c:	00 
 804966d:	89 5c 24 04          	mov    %ebx,0x4(%esp)
 8049671:	8b 8d b0 5f ff ff    	mov    -0xa050(%ebp),%ecx
 8049677:	89 0c 24             	mov    %ecx,(%esp)
 804967a:	e8 f1 f3 ff ff       	call   8048a70 <connect@plt>
 804967f:	85 c0                	test   %eax,%eax
 8049681:	79 2f                	jns    80496b2 <submitr+0x12e>
 8049683:	89 74 24 08          	mov    %esi,0x8(%esp)
 8049687:	c7 44 24 04 0c a7 04 	movl   $0x804a70c,0x4(%esp)
 804968e:	08 
 804968f:	8b 75 20             	mov    0x20(%ebp),%esi
 8049692:	89 34 24             	mov    %esi,(%esp)
 8049695:	e8 96 f3 ff ff       	call   8048a30 <sprintf@plt>
 804969a:	8b bd b0 5f ff ff    	mov    -0xa050(%ebp),%edi
 80496a0:	89 3c 24             	mov    %edi,(%esp)
 80496a3:	e8 d8 f3 ff ff       	call   8048a80 <close@plt>
 80496a8:	b8 ff ff ff ff       	mov    $0xffffffff,%eax
 80496ad:	e9 eb 04 00 00       	jmp    8049b9d <submitr+0x619>
 80496b2:	ba ff ff ff ff       	mov    $0xffffffff,%edx
 80496b7:	8b 7d 1c             	mov    0x1c(%ebp),%edi
 80496ba:	b8 00 00 00 00       	mov    $0x0,%eax
 80496bf:	89 d1                	mov    %edx,%ecx
 80496c1:	f2 ae                	repnz scas %es:(%edi),%al
 80496c3:	89 cb                	mov    %ecx,%ebx
 80496c5:	f7 d3                	not    %ebx
 80496c7:	8b 7d 10             	mov    0x10(%ebp),%edi
 80496ca:	89 d1                	mov    %edx,%ecx
 80496cc:	f2 ae                	repnz scas %es:(%edi),%al
 80496ce:	89 8d b4 5f ff ff    	mov    %ecx,-0xa04c(%ebp)
 80496d4:	8b 7d 14             	mov    0x14(%ebp),%edi
 80496d7:	89 d1                	mov    %edx,%ecx
 80496d9:	f2 ae                	repnz scas %es:(%edi),%al
 80496db:	89 ce                	mov    %ecx,%esi
 80496dd:	f7 d6                	not    %esi
 80496df:	8b 7d 18             	mov    0x18(%ebp),%edi
 80496e2:	89 d1                	mov    %edx,%ecx
 80496e4:	f2 ae                	repnz scas %es:(%edi),%al
 80496e6:	2b b5 b4 5f ff ff    	sub    -0xa04c(%ebp),%esi
 80496ec:	29 ce                	sub    %ecx,%esi
 80496ee:	8d 44 5b fd          	lea    -0x3(%ebx,%ebx,2),%eax
 80496f2:	8d 44 06 7b          	lea    0x7b(%esi,%eax,1),%eax
 80496f6:	3d 00 20 00 00       	cmp    $0x2000,%eax
 80496fb:	76 7c                	jbe    8049779 <submitr+0x1f5>
 80496fd:	8b 75 20             	mov    0x20(%ebp),%esi
 8049700:	c7 06 45 72 72 6f    	movl   $0x6f727245,(%esi)
 8049706:	c7 46 04 72 3a 20 52 	movl   $0x52203a72,0x4(%esi)
 804970d:	c7 46 08 65 73 75 6c 	movl   $0x6c757365,0x8(%esi)
 8049714:	c7 46 0c 74 20 73 74 	movl   $0x74732074,0xc(%esi)
 804971b:	c7 46 10 72 69 6e 67 	movl   $0x676e6972,0x10(%esi)
 8049722:	c7 46 14 20 74 6f 6f 	movl   $0x6f6f7420,0x14(%esi)
 8049729:	c7 46 18 20 6c 61 72 	movl   $0x72616c20,0x18(%esi)
 8049730:	c7 46 1c 67 65 2e 20 	movl   $0x202e6567,0x1c(%esi)
 8049737:	c7 46 20 49 6e 63 72 	movl   $0x72636e49,0x20(%esi)
 804973e:	c7 46 24 65 61 73 65 	movl   $0x65736165,0x24(%esi)
 8049745:	c7 46 28 20 53 55 42 	movl   $0x42555320,0x28(%esi)
 804974c:	c7 46 2c 4d 49 54 52 	movl   $0x5254494d,0x2c(%esi)
 8049753:	c7 46 30 5f 4d 41 58 	movl   $0x58414d5f,0x30(%esi)
 804975a:	c7 46 34 42 55 46 00 	movl   $0x465542,0x34(%esi)
 8049761:	8b bd b0 5f ff ff    	mov    -0xa050(%ebp),%edi
 8049767:	89 3c 24             	mov    %edi,(%esp)
 804976a:	e8 11 f3 ff ff       	call   8048a80 <close@plt>
 804976f:	b8 ff ff ff ff       	mov    $0xffffffff,%eax
 8049774:	e9 24 04 00 00       	jmp    8049b9d <submitr+0x619>
 8049779:	8d 95 cc 9f ff ff    	lea    -0x6034(%ebp),%edx
 804977f:	b9 00 08 00 00       	mov    $0x800,%ecx
 8049784:	b8 00 00 00 00       	mov    $0x0,%eax
 8049789:	89 d7                	mov    %edx,%edi
 804978b:	f3 ab                	rep stos %eax,%es:(%edi)
 804978d:	8b 7d 1c             	mov    0x1c(%ebp),%edi
 8049790:	b9 ff ff ff ff       	mov    $0xffffffff,%ecx
 8049795:	f2 ae                	repnz scas %es:(%edi),%al
 8049797:	f7 d1                	not    %ecx
 8049799:	89 cf                	mov    %ecx,%edi
 804979b:	83 ef 01             	sub    $0x1,%edi
 804979e:	0f 84 04 04 00 00    	je     8049ba8 <submitr+0x624>
 80497a4:	89 d6                	mov    %edx,%esi
 80497a6:	bb 00 00 00 00       	mov    $0x0,%ebx
 80497ab:	89 bd b4 5f ff ff    	mov    %edi,-0xa04c(%ebp)
 80497b1:	8b 7d 1c             	mov    0x1c(%ebp),%edi
 80497b4:	0f b6 04 1f          	movzbl (%edi,%ebx,1),%eax
 80497b8:	3c 2a                	cmp    $0x2a,%al
 80497ba:	74 24                	je     80497e0 <submitr+0x25c>
 80497bc:	3c 2d                	cmp    $0x2d,%al
 80497be:	74 20                	je     80497e0 <submitr+0x25c>
 80497c0:	3c 2e                	cmp    $0x2e,%al
 80497c2:	74 1c                	je     80497e0 <submitr+0x25c>
 80497c4:	3c 5f                	cmp    $0x5f,%al
 80497c6:	74 18                	je     80497e0 <submitr+0x25c>
 80497c8:	8d 50 d0             	lea    -0x30(%eax),%edx
 80497cb:	80 fa 09             	cmp    $0x9,%dl
 80497ce:	76 10                	jbe    80497e0 <submitr+0x25c>
 80497d0:	8d 50 bf             	lea    -0x41(%eax),%edx
 80497d3:	80 fa 19             	cmp    $0x19,%dl
 80497d6:	76 08                	jbe    80497e0 <submitr+0x25c>
 80497d8:	8d 50 9f             	lea    -0x61(%eax),%edx
 80497db:	80 fa 19             	cmp    $0x19,%dl
 80497de:	77 07                	ja     80497e7 <submitr+0x263>
 80497e0:	88 06                	mov    %al,(%esi)
 80497e2:	83 c6 01             	add    $0x1,%esi
 80497e5:	eb 55                	jmp    804983c <submitr+0x2b8>
 80497e7:	3c 20                	cmp    $0x20,%al
 80497e9:	75 08                	jne    80497f3 <submitr+0x26f>
 80497eb:	c6 06 2b             	movb   $0x2b,(%esi)
 80497ee:	83 c6 01             	add    $0x1,%esi
 80497f1:	eb 49                	jmp    804983c <submitr+0x2b8>
 80497f3:	8d 50 e0             	lea    -0x20(%eax),%edx
 80497f6:	80 fa 5f             	cmp    $0x5f,%dl
 80497f9:	76 04                	jbe    80497ff <submitr+0x27b>
 80497fb:	3c 09                	cmp    $0x9,%al
 80497fd:	75 51                	jne    8049850 <submitr+0x2cc>
 80497ff:	0f b6 c0             	movzbl %al,%eax
 8049802:	89 44 24 08          	mov    %eax,0x8(%esp)
 8049806:	c7 44 24 04 bc a8 04 	movl   $0x804a8bc,0x4(%esp)
 804980d:	08 
 804980e:	8d 85 c0 5f ff ff    	lea    -0xa040(%ebp),%eax
 8049814:	89 04 24             	mov    %eax,(%esp)
 8049817:	e8 14 f2 ff ff       	call   8048a30 <sprintf@plt>
 804981c:	0f b6 85 c0 5f ff ff 	movzbl -0xa040(%ebp),%eax
 8049823:	88 06                	mov    %al,(%esi)
 8049825:	0f b6 85 c1 5f ff ff 	movzbl -0xa03f(%ebp),%eax
 804982c:	88 46 01             	mov    %al,0x1(%esi)
 804982f:	0f b6 85 c2 5f ff ff 	movzbl -0xa03e(%ebp),%eax
 8049836:	88 46 02             	mov    %al,0x2(%esi)
 8049839:	83 c6 03             	add    $0x3,%esi
 804983c:	83 c3 01             	add    $0x1,%ebx
 804983f:	3b 9d b4 5f ff ff    	cmp    -0xa04c(%ebp),%ebx
 8049845:	0f 85 69 ff ff ff    	jne    80497b4 <submitr+0x230>
 804984b:	e9 58 03 00 00       	jmp    8049ba8 <submitr+0x624>
 8049850:	b8 34 a7 04 08       	mov    $0x804a734,%eax
 8049855:	b9 43 00 00 00       	mov    $0x43,%ecx
 804985a:	8b 7d 20             	mov    0x20(%ebp),%edi
 804985d:	89 c6                	mov    %eax,%esi
 804985f:	f3 a4                	rep movsb %ds:(%esi),%es:(%edi)
 8049861:	8b 85 b0 5f ff ff    	mov    -0xa050(%ebp),%eax
 8049867:	89 04 24             	mov    %eax,(%esp)
 804986a:	e8 11 f2 ff ff       	call   8048a80 <close@plt>
 804986f:	b8 ff ff ff ff       	mov    $0xffffffff,%eax
 8049874:	e9 24 03 00 00       	jmp    8049b9d <submitr+0x619>
 8049879:	01 c6                	add    %eax,%esi
 804987b:	eb 14                	jmp    8049891 <submitr+0x30d>
 804987d:	89 fb                	mov    %edi,%ebx
 804987f:	8d b5 cc bf ff ff    	lea    -0x4034(%ebp),%esi
 8049885:	89 bd b4 5f ff ff    	mov    %edi,-0xa04c(%ebp)
 804988b:	8b bd b0 5f ff ff    	mov    -0xa050(%ebp),%edi
 8049891:	89 5c 24 08          	mov    %ebx,0x8(%esp)
 8049895:	89 74 24 04          	mov    %esi,0x4(%esp)
 8049899:	89 3c 24             	mov    %edi,(%esp)
 804989c:	e8 ff f0 ff ff       	call   80489a0 <write@plt>
 80498a1:	85 c0                	test   %eax,%eax
 80498a3:	7f 12                	jg     80498b7 <submitr+0x333>
 80498a5:	e8 56 f1 ff ff       	call   8048a00 <__errno_location@plt>
 80498aa:	83 38 04             	cmpl   $0x4,(%eax)
 80498ad:	8d 76 00             	lea    0x0(%esi),%esi
 80498b0:	75 13                	jne    80498c5 <submitr+0x341>
 80498b2:	b8 00 00 00 00       	mov    $0x0,%eax
 80498b7:	29 c3                	sub    %eax,%ebx
 80498b9:	75 be                	jne    8049879 <submitr+0x2f5>
 80498bb:	8b bd b4 5f ff ff    	mov    -0xa04c(%ebp),%edi
 80498c1:	85 ff                	test   %edi,%edi
 80498c3:	79 63                	jns    8049928 <submitr+0x3a4>
 80498c5:	8b 7d 20             	mov    0x20(%ebp),%edi
 80498c8:	be 78 a7 04 08       	mov    $0x804a778,%esi
 80498cd:	b8 2c 00 00 00       	mov    $0x2c,%eax
 80498d2:	f7 c7 01 00 00 00    	test   $0x1,%edi
 80498d8:	74 03                	je     80498dd <submitr+0x359>
 80498da:	a4                   	movsb  %ds:(%esi),%es:(%edi)
 80498db:	b0 2b                	mov    $0x2b,%al
 80498dd:	f7 c7 02 00 00 00    	test   $0x2,%edi
 80498e3:	74 05                	je     80498ea <submitr+0x366>
 80498e5:	66 a5                	movsw  %ds:(%esi),%es:(%edi)
 80498e7:	83 e8 02             	sub    $0x2,%eax
 80498ea:	89 c1                	mov    %eax,%ecx
 80498ec:	c1 e9 02             	shr    $0x2,%ecx
 80498ef:	f3 a5                	rep movsl %ds:(%esi),%es:(%edi)
 80498f1:	ba 00 00 00 00       	mov    $0x0,%edx
 80498f6:	a8 02                	test   $0x2,%al
 80498f8:	74 0b                	je     8049905 <submitr+0x381>
 80498fa:	0f b7 16             	movzwl (%esi),%edx
 80498fd:	66 89 17             	mov    %dx,(%edi)
 8049900:	ba 02 00 00 00       	mov    $0x2,%edx
 8049905:	a8 01                	test   $0x1,%al
 8049907:	74 07                	je     8049910 <submitr+0x38c>
 8049909:	0f b6 04 16          	movzbl (%esi,%edx,1),%eax
 804990d:	88 04 17             	mov    %al,(%edi,%edx,1)
 8049910:	8b 95 b0 5f ff ff    	mov    -0xa050(%ebp),%edx
 8049916:	89 14 24             	mov    %edx,(%esp)
 8049919:	e8 62 f1 ff ff       	call   8048a80 <close@plt>
 804991e:	b8 ff ff ff ff       	mov    $0xffffffff,%eax
 8049923:	e9 75 02 00 00       	jmp    8049b9d <submitr+0x619>
 8049928:	8b 8d b0 5f ff ff    	mov    -0xa050(%ebp),%ecx
 804992e:	89 8d cc df ff ff    	mov    %ecx,-0x2034(%ebp)
 8049934:	c7 85 d0 df ff ff 00 	movl   $0x0,-0x2030(%ebp)
 804993b:	00 00 00 
 804993e:	8d 85 cc df ff ff    	lea    -0x2034(%ebp),%eax
 8049944:	8d 95 d8 df ff ff    	lea    -0x2028(%ebp),%edx
 804994a:	89 95 d4 df ff ff    	mov    %edx,-0x202c(%ebp)
 8049950:	8d 95 cc bf ff ff    	lea    -0x4034(%ebp),%edx
 8049956:	b9 00 20 00 00       	mov    $0x2000,%ecx
 804995b:	e8 f0 fa ff ff       	call   8049450 <rio_readlineb>
 8049960:	85 c0                	test   %eax,%eax
 8049962:	7f 29                	jg     804998d <submitr+0x409>
 8049964:	b8 a4 a7 04 08       	mov    $0x804a7a4,%eax
 8049969:	b9 36 00 00 00       	mov    $0x36,%ecx
 804996e:	8b 7d 20             	mov    0x20(%ebp),%edi
 8049971:	89 c6                	mov    %eax,%esi
 8049973:	f3 a4                	rep movsb %ds:(%esi),%es:(%edi)
 8049975:	8b 85 b0 5f ff ff    	mov    -0xa050(%ebp),%eax
 804997b:	89 04 24             	mov    %eax,(%esp)
 804997e:	e8 fd f0 ff ff       	call   8048a80 <close@plt>
 8049983:	b8 ff ff ff ff       	mov    $0xffffffff,%eax
 8049988:	e9 10 02 00 00       	jmp    8049b9d <submitr+0x619>
 804998d:	8d 85 c8 5f ff ff    	lea    -0xa038(%ebp),%eax
 8049993:	89 44 24 10          	mov    %eax,0x10(%esp)
 8049997:	8d 85 c8 7f ff ff    	lea    -0x8038(%ebp),%eax
 804999d:	89 44 24 0c          	mov    %eax,0xc(%esp)
 80499a1:	8d 85 cc 7f ff ff    	lea    -0x8034(%ebp),%eax
 80499a7:	89 44 24 08          	mov    %eax,0x8(%esp)
 80499ab:	c7 44 24 04 c3 a8 04 	movl   $0x804a8c3,0x4(%esp)
 80499b2:	08 
 80499b3:	8d 85 cc bf ff ff    	lea    -0x4034(%ebp),%eax
 80499b9:	89 04 24             	mov    %eax,(%esp)
 80499bc:	e8 0f f0 ff ff       	call   80489d0 <__isoc99_sscanf@plt>
 80499c1:	8b 85 c8 7f ff ff    	mov    -0x8038(%ebp),%eax
 80499c7:	8d 9d cc df ff ff    	lea    -0x2034(%ebp),%ebx
 80499cd:	3d c8 00 00 00       	cmp    $0xc8,%eax
 80499d2:	0f 84 c1 00 00 00    	je     8049a99 <submitr+0x515>
 80499d8:	8d 95 c8 5f ff ff    	lea    -0xa038(%ebp),%edx
 80499de:	89 54 24 0c          	mov    %edx,0xc(%esp)
 80499e2:	89 44 24 08          	mov    %eax,0x8(%esp)
 80499e6:	c7 44 24 04 dc a7 04 	movl   $0x804a7dc,0x4(%esp)
 80499ed:	08 
 80499ee:	8b 55 20             	mov    0x20(%ebp),%edx
 80499f1:	89 14 24             	mov    %edx,(%esp)
 80499f4:	e8 37 f0 ff ff       	call   8048a30 <sprintf@plt>
 80499f9:	8b 8d b0 5f ff ff    	mov    -0xa050(%ebp),%ecx
 80499ff:	89 0c 24             	mov    %ecx,(%esp)
 8049a02:	e8 79 f0 ff ff       	call   8048a80 <close@plt>
 8049a07:	b8 ff ff ff ff       	mov    $0xffffffff,%eax
 8049a0c:	e9 8c 01 00 00       	jmp    8049b9d <submitr+0x619>
 8049a11:	8d 95 cc bf ff ff    	lea    -0x4034(%ebp),%edx
 8049a17:	b9 00 20 00 00       	mov    $0x2000,%ecx
 8049a1c:	89 d8                	mov    %ebx,%eax
 8049a1e:	e8 2d fa ff ff       	call   8049450 <rio_readlineb>
 8049a23:	85 c0                	test   %eax,%eax
 8049a25:	7f 72                	jg     8049a99 <submitr+0x515>
 8049a27:	8b 75 20             	mov    0x20(%ebp),%esi
 8049a2a:	c7 06 45 72 72 6f    	movl   $0x6f727245,(%esi)
 8049a30:	c7 46 04 72 3a 20 43 	movl   $0x43203a72,0x4(%esi)
 8049a37:	c7 46 08 6c 69 65 6e 	movl   $0x6e65696c,0x8(%esi)
 8049a3e:	c7 46 0c 74 20 75 6e 	movl   $0x6e752074,0xc(%esi)
 8049a45:	c7 46 10 61 62 6c 65 	movl   $0x656c6261,0x10(%esi)
 8049a4c:	c7 46 14 20 74 6f 20 	movl   $0x206f7420,0x14(%esi)
 8049a53:	c7 46 18 72 65 61 64 	movl   $0x64616572,0x18(%esi)
 8049a5a:	c7 46 1c 20 68 65 61 	movl   $0x61656820,0x1c(%esi)
 8049a61:	c7 46 20 64 65 72 73 	movl   $0x73726564,0x20(%esi)
 8049a68:	c7 46 24 20 66 72 6f 	movl   $0x6f726620,0x24(%esi)
 8049a6f:	c7 46 28 6d 20 73 65 	movl   $0x6573206d,0x28(%esi)
 8049a76:	c7 46 2c 72 76 65 72 	movl   $0x72657672,0x2c(%esi)
 8049a7d:	c6 46 30 00          	movb   $0x0,0x30(%esi)
 8049a81:	8b bd b0 5f ff ff    	mov    -0xa050(%ebp),%edi
 8049a87:	89 3c 24             	mov    %edi,(%esp)
 8049a8a:	e8 f1 ef ff ff       	call   8048a80 <close@plt>
 8049a8f:	b8 ff ff ff ff       	mov    $0xffffffff,%eax
 8049a94:	e9 04 01 00 00       	jmp    8049b9d <submitr+0x619>
 8049a99:	8d 85 cc bf ff ff    	lea    -0x4034(%ebp),%eax
 8049a9f:	0f b6 95 cc bf ff ff 	movzbl -0x4034(%ebp),%edx
 8049aa6:	38 15 d4 a8 04 08    	cmp    %dl,0x804a8d4
 8049aac:	0f 85 5f ff ff ff    	jne    8049a11 <submitr+0x48d>
 8049ab2:	0f b6 8d cd bf ff ff 	movzbl -0x4033(%ebp),%ecx
 8049ab9:	38 0d d5 a8 04 08    	cmp    %cl,0x804a8d5
 8049abf:	0f 85 4c ff ff ff    	jne    8049a11 <submitr+0x48d>
 8049ac5:	0f b6 50 02          	movzbl 0x2(%eax),%edx
 8049ac9:	38 15 d6 a8 04 08    	cmp    %dl,0x804a8d6
 8049acf:	0f 85 3c ff ff ff    	jne    8049a11 <submitr+0x48d>
 8049ad5:	89 c2                	mov    %eax,%edx
 8049ad7:	8d 85 cc df ff ff    	lea    -0x2034(%ebp),%eax
 8049add:	b9 00 20 00 00       	mov    $0x2000,%ecx
 8049ae2:	e8 69 f9 ff ff       	call   8049450 <rio_readlineb>
 8049ae7:	85 c0                	test   %eax,%eax
 8049ae9:	7f 60                	jg     8049b4b <submitr+0x5c7>
 8049aeb:	8b 7d 20             	mov    0x20(%ebp),%edi
 8049aee:	be 0c a8 04 08       	mov    $0x804a80c,%esi
 8049af3:	b8 38 00 00 00       	mov    $0x38,%eax
 8049af8:	f7 c7 01 00 00 00    	test   $0x1,%edi
 8049afe:	74 03                	je     8049b03 <submitr+0x57f>
 8049b00:	a4                   	movsb  %ds:(%esi),%es:(%edi)
 8049b01:	b0 37                	mov    $0x37,%al
 8049b03:	f7 c7 02 00 00 00    	test   $0x2,%edi
 8049b09:	74 05                	je     8049b10 <submitr+0x58c>
 8049b0b:	66 a5                	movsw  %ds:(%esi),%es:(%edi)
 8049b0d:	83 e8 02             	sub    $0x2,%eax
 8049b10:	89 c1                	mov    %eax,%ecx
 8049b12:	c1 e9 02             	shr    $0x2,%ecx
 8049b15:	f3 a5                	rep movsl %ds:(%esi),%es:(%edi)
 8049b17:	ba 00 00 00 00       	mov    $0x0,%edx
 8049b1c:	a8 02                	test   $0x2,%al
 8049b1e:	74 0b                	je     8049b2b <submitr+0x5a7>
 8049b20:	0f b7 16             	movzwl (%esi),%edx
 8049b23:	66 89 17             	mov    %dx,(%edi)
 8049b26:	ba 02 00 00 00       	mov    $0x2,%edx
 8049b2b:	a8 01                	test   $0x1,%al
 8049b2d:	74 07                	je     8049b36 <submitr+0x5b2>
 8049b2f:	0f b6 04 16          	movzbl (%esi,%edx,1),%eax
 8049b33:	88 04 17             	mov    %al,(%edi,%edx,1)
 8049b36:	8b 8d b0 5f ff ff    	mov    -0xa050(%ebp),%ecx
 8049b3c:	89 0c 24             	mov    %ecx,(%esp)
 8049b3f:	e8 3c ef ff ff       	call   8048a80 <close@plt>
 8049b44:	b8 ff ff ff ff       	mov    $0xffffffff,%eax
 8049b49:	eb 52                	jmp    8049b9d <submitr+0x619>
 8049b4b:	8d 85 cc bf ff ff    	lea    -0x4034(%ebp),%eax
 8049b51:	89 44 24 04          	mov    %eax,0x4(%esp)
 8049b55:	8b 75 20             	mov    0x20(%ebp),%esi
 8049b58:	89 34 24             	mov    %esi,(%esp)
 8049b5b:	e8 b0 ed ff ff       	call   8048910 <strcpy@plt>
 8049b60:	8b bd b0 5f ff ff    	mov    -0xa050(%ebp),%edi
 8049b66:	89 3c 24             	mov    %edi,(%esp)
 8049b69:	e8 12 ef ff ff       	call   8048a80 <close@plt>
 8049b6e:	b8 ff ff ff ff       	mov    $0xffffffff,%eax
 8049b73:	0f b6 16             	movzbl (%esi),%edx
 8049b76:	38 15 d7 a8 04 08    	cmp    %dl,0x804a8d7
 8049b7c:	75 1f                	jne    8049b9d <submitr+0x619>
 8049b7e:	0f b6 4e 01          	movzbl 0x1(%esi),%ecx
 8049b82:	38 0d d8 a8 04 08    	cmp    %cl,0x804a8d8
 8049b88:	75 13                	jne    8049b9d <submitr+0x619>
 8049b8a:	0f b6 46 02          	movzbl 0x2(%esi),%eax
 8049b8e:	38 05 d9 a8 04 08    	cmp    %al,0x804a8d9
 8049b94:	0f 94 c0             	sete   %al
 8049b97:	0f b6 c0             	movzbl %al,%eax
 8049b9a:	83 e8 01             	sub    $0x1,%eax
 8049b9d:	81 c4 6c a0 00 00    	add    $0xa06c,%esp
 8049ba3:	5b                   	pop    %ebx
 8049ba4:	5e                   	pop    %esi
 8049ba5:	5f                   	pop    %edi
 8049ba6:	5d                   	pop    %ebp
 8049ba7:	c3                   	ret    
 8049ba8:	8d 85 cc 9f ff ff    	lea    -0x6034(%ebp),%eax
 8049bae:	89 44 24 14          	mov    %eax,0x14(%esp)
 8049bb2:	8b 55 18             	mov    0x18(%ebp),%edx
 8049bb5:	89 54 24 10          	mov    %edx,0x10(%esp)
 8049bb9:	8b 4d 14             	mov    0x14(%ebp),%ecx
 8049bbc:	89 4c 24 0c          	mov    %ecx,0xc(%esp)
 8049bc0:	8b 75 10             	mov    0x10(%ebp),%esi
 8049bc3:	89 74 24 08          	mov    %esi,0x8(%esp)
 8049bc7:	c7 44 24 04 44 a8 04 	movl   $0x804a844,0x4(%esp)
 8049bce:	08 
 8049bcf:	8d bd cc bf ff ff    	lea    -0x4034(%ebp),%edi
 8049bd5:	89 3c 24             	mov    %edi,(%esp)
 8049bd8:	e8 53 ee ff ff       	call   8048a30 <sprintf@plt>
 8049bdd:	b8 00 00 00 00       	mov    $0x0,%eax
 8049be2:	b9 ff ff ff ff       	mov    $0xffffffff,%ecx
 8049be7:	f2 ae                	repnz scas %es:(%edi),%al
 8049be9:	f7 d1                	not    %ecx
 8049beb:	89 cf                	mov    %ecx,%edi
 8049bed:	83 ef 01             	sub    $0x1,%edi
 8049bf0:	0f 85 87 fc ff ff    	jne    804987d <submitr+0x2f9>
 8049bf6:	e9 2d fd ff ff       	jmp    8049928 <submitr+0x3a4>

08049bfb <init_timeout>:
 8049bfb:	55                   	push   %ebp
 8049bfc:	89 e5                	mov    %esp,%ebp
 8049bfe:	53                   	push   %ebx
 8049bff:	83 ec 14             	sub    $0x14,%esp
 8049c02:	8b 5d 08             	mov    0x8(%ebp),%ebx
 8049c05:	85 db                	test   %ebx,%ebx
 8049c07:	74 26                	je     8049c2f <init_timeout+0x34>
 8049c09:	85 db                	test   %ebx,%ebx
 8049c0b:	b8 02 00 00 00       	mov    $0x2,%eax
 8049c10:	0f 48 d8             	cmovs  %eax,%ebx
 8049c13:	c7 44 24 04 5e 95 04 	movl   $0x804955e,0x4(%esp)
 8049c1a:	08 
 8049c1b:	c7 04 24 0e 00 00 00 	movl   $0xe,(%esp)
 8049c22:	e8 99 ec ff ff       	call   80488c0 <signal@plt>
 8049c27:	89 1c 24             	mov    %ebx,(%esp)
 8049c2a:	e8 a1 ec ff ff       	call   80488d0 <alarm@plt>
 8049c2f:	83 c4 14             	add    $0x14,%esp
 8049c32:	5b                   	pop    %ebx
 8049c33:	5d                   	pop    %ebp
 8049c34:	c3                   	ret    

08049c35 <init_driver>:
 8049c35:	55                   	push   %ebp
 8049c36:	89 e5                	mov    %esp,%ebp
 8049c38:	57                   	push   %edi
 8049c39:	56                   	push   %esi
 8049c3a:	53                   	push   %ebx
 8049c3b:	83 ec 2c             	sub    $0x2c,%esp
 8049c3e:	8b 75 08             	mov    0x8(%ebp),%esi
 8049c41:	c7 44 24 04 01 00 00 	movl   $0x1,0x4(%esp)
 8049c48:	00 
 8049c49:	c7 04 24 0d 00 00 00 	movl   $0xd,(%esp)
 8049c50:	e8 6b ec ff ff       	call   80488c0 <signal@plt>
 8049c55:	c7 44 24 04 01 00 00 	movl   $0x1,0x4(%esp)
 8049c5c:	00 
 8049c5d:	c7 04 24 1d 00 00 00 	movl   $0x1d,(%esp)
 8049c64:	e8 57 ec ff ff       	call   80488c0 <signal@plt>
 8049c69:	c7 44 24 04 01 00 00 	movl   $0x1,0x4(%esp)
 8049c70:	00 
 8049c71:	c7 04 24 1d 00 00 00 	movl   $0x1d,(%esp)
 8049c78:	e8 43 ec ff ff       	call   80488c0 <signal@plt>
 8049c7d:	c7 44 24 08 00 00 00 	movl   $0x0,0x8(%esp)
 8049c84:	00 
 8049c85:	c7 44 24 04 01 00 00 	movl   $0x1,0x4(%esp)
 8049c8c:	00 
 8049c8d:	c7 04 24 02 00 00 00 	movl   $0x2,(%esp)
 8049c94:	e8 a7 ed ff ff       	call   8048a40 <socket@plt>
 8049c99:	89 c3                	mov    %eax,%ebx
 8049c9b:	85 c0                	test   %eax,%eax
 8049c9d:	79 4e                	jns    8049ced <init_driver+0xb8>
 8049c9f:	c7 06 45 72 72 6f    	movl   $0x6f727245,(%esi)
 8049ca5:	c7 46 04 72 3a 20 43 	movl   $0x43203a72,0x4(%esi)
 8049cac:	c7 46 08 6c 69 65 6e 	movl   $0x6e65696c,0x8(%esi)
 8049cb3:	c7 46 0c 74 20 75 6e 	movl   $0x6e752074,0xc(%esi)
 8049cba:	c7 46 10 61 62 6c 65 	movl   $0x656c6261,0x10(%esi)
 8049cc1:	c7 46 14 20 74 6f 20 	movl   $0x206f7420,0x14(%esi)
 8049cc8:	c7 46 18 63 72 65 61 	movl   $0x61657263,0x18(%esi)
 8049ccf:	c7 46 1c 74 65 20 73 	movl   $0x73206574,0x1c(%esi)
 8049cd6:	c7 46 20 6f 63 6b 65 	movl   $0x656b636f,0x20(%esi)
 8049cdd:	66 c7 46 24 74 00    	movw   $0x74,0x24(%esi)
 8049ce3:	b8 ff ff ff ff       	mov    $0xffffffff,%eax
 8049ce8:	e9 dd 00 00 00       	jmp    8049dca <init_driver+0x195>
 8049ced:	c7 04 24 2b a5 04 08 	movl   $0x804a52b,(%esp)
 8049cf4:	e8 67 ed ff ff       	call   8048a60 <gethostbyname@plt>
 8049cf9:	85 c0                	test   %eax,%eax
 8049cfb:	75 2a                	jne    8049d27 <init_driver+0xf2>
 8049cfd:	c7 44 24 08 2b a5 04 	movl   $0x804a52b,0x8(%esp)
 8049d04:	08 
 8049d05:	c7 44 24 04 e0 a6 04 	movl   $0x804a6e0,0x4(%esp)
 8049d0c:	08 
 8049d0d:	89 34 24             	mov    %esi,(%esp)
 8049d10:	e8 1b ed ff ff       	call   8048a30 <sprintf@plt>
 8049d15:	89 1c 24             	mov    %ebx,(%esp)
 8049d18:	e8 63 ed ff ff       	call   8048a80 <close@plt>
 8049d1d:	b8 ff ff ff ff       	mov    $0xffffffff,%eax
 8049d22:	e9 a3 00 00 00       	jmp    8049dca <init_driver+0x195>
 8049d27:	8d 7d d8             	lea    -0x28(%ebp),%edi
 8049d2a:	c7 45 d8 00 00 00 00 	movl   $0x0,-0x28(%ebp)
 8049d31:	c7 45 dc 00 00 00 00 	movl   $0x0,-0x24(%ebp)
 8049d38:	c7 45 e0 00 00 00 00 	movl   $0x0,-0x20(%ebp)
 8049d3f:	c7 45 e4 00 00 00 00 	movl   $0x0,-0x1c(%ebp)
 8049d46:	66 c7 45 d8 02 00    	movw   $0x2,-0x28(%ebp)
 8049d4c:	8b 50 0c             	mov    0xc(%eax),%edx
 8049d4f:	89 54 24 08          	mov    %edx,0x8(%esp)
 8049d53:	8d 55 dc             	lea    -0x24(%ebp),%edx
 8049d56:	89 54 24 04          	mov    %edx,0x4(%esp)
 8049d5a:	8b 40 10             	mov    0x10(%eax),%eax
 8049d5d:	8b 00                	mov    (%eax),%eax
 8049d5f:	89 04 24             	mov    %eax,(%esp)
 8049d62:	e8 99 eb ff ff       	call   8048900 <bcopy@plt>
 8049d67:	66 c7 45 da 47 26    	movw   $0x2647,-0x26(%ebp)
 8049d6d:	c7 44 24 08 10 00 00 	movl   $0x10,0x8(%esp)
 8049d74:	00 
 8049d75:	89 7c 24 04          	mov    %edi,0x4(%esp)
 8049d79:	89 1c 24             	mov    %ebx,(%esp)
 8049d7c:	e8 ef ec ff ff       	call   8048a70 <connect@plt>
 8049d81:	85 c0                	test   %eax,%eax
 8049d83:	79 2f                	jns    8049db4 <init_driver+0x17f>
 8049d85:	c7 44 24 0c 26 47 00 	movl   $0x4726,0xc(%esp)
 8049d8c:	00 
 8049d8d:	c7 44 24 08 2b a5 04 	movl   $0x804a52b,0x8(%esp)
 8049d94:	08 
 8049d95:	c7 44 24 04 90 a8 04 	movl   $0x804a890,0x4(%esp)
 8049d9c:	08 
 8049d9d:	89 34 24             	mov    %esi,(%esp)
 8049da0:	e8 8b ec ff ff       	call   8048a30 <sprintf@plt>
 8049da5:	89 1c 24             	mov    %ebx,(%esp)
 8049da8:	e8 d3 ec ff ff       	call   8048a80 <close@plt>
 8049dad:	b8 ff ff ff ff       	mov    $0xffffffff,%eax
 8049db2:	eb 16                	jmp    8049dca <init_driver+0x195>
 8049db4:	89 1c 24             	mov    %ebx,(%esp)
 8049db7:	e8 c4 ec ff ff       	call   8048a80 <close@plt>
 8049dbc:	66 c7 06 4f 4b       	movw   $0x4b4f,(%esi)
 8049dc1:	c6 46 02 00          	movb   $0x0,0x2(%esi)
 8049dc5:	b8 00 00 00 00       	mov    $0x0,%eax
 8049dca:	83 c4 2c             	add    $0x2c,%esp
 8049dcd:	5b                   	pop    %ebx
 8049dce:	5e                   	pop    %esi
 8049dcf:	5f                   	pop    %edi
 8049dd0:	5d                   	pop    %ebp
 8049dd1:	c3                   	ret    

08049dd2 <driver_post>:
 8049dd2:	55                   	push   %ebp
 8049dd3:	89 e5                	mov    %esp,%ebp
 8049dd5:	53                   	push   %ebx
 8049dd6:	83 ec 24             	sub    $0x24,%esp
 8049dd9:	8b 45 08             	mov    0x8(%ebp),%eax
 8049ddc:	8b 55 0c             	mov    0xc(%ebp),%edx
 8049ddf:	8b 5d 14             	mov    0x14(%ebp),%ebx
 8049de2:	83 7d 10 00          	cmpl   $0x0,0x10(%ebp)
 8049de6:	74 20                	je     8049e08 <driver_post+0x36>
 8049de8:	89 54 24 04          	mov    %edx,0x4(%esp)
 8049dec:	c7 04 24 da a8 04 08 	movl   $0x804a8da,(%esp)
 8049df3:	e8 a8 ea ff ff       	call   80488a0 <printf@plt>
 8049df8:	66 c7 03 4f 4b       	movw   $0x4b4f,(%ebx)
 8049dfd:	c6 43 02 00          	movb   $0x0,0x2(%ebx)
 8049e01:	b8 00 00 00 00       	mov    $0x0,%eax
 8049e06:	eb 49                	jmp    8049e51 <driver_post+0x7f>
 8049e08:	85 c0                	test   %eax,%eax
 8049e0a:	74 37                	je     8049e43 <driver_post+0x71>
 8049e0c:	80 38 00             	cmpb   $0x0,(%eax)
 8049e0f:	74 32                	je     8049e43 <driver_post+0x71>
 8049e11:	89 5c 24 18          	mov    %ebx,0x18(%esp)
 8049e15:	89 54 24 14          	mov    %edx,0x14(%esp)
 8049e19:	c7 44 24 10 f1 a8 04 	movl   $0x804a8f1,0x10(%esp)
 8049e20:	08 
 8049e21:	89 44 24 0c          	mov    %eax,0xc(%esp)
 8049e25:	c7 44 24 08 f8 a8 04 	movl   $0x804a8f8,0x8(%esp)
 8049e2c:	08 
 8049e2d:	c7 44 24 04 26 47 00 	movl   $0x4726,0x4(%esp)
 8049e34:	00 
 8049e35:	c7 04 24 2b a5 04 08 	movl   $0x804a52b,(%esp)
 8049e3c:	e8 43 f7 ff ff       	call   8049584 <submitr>
 8049e41:	eb 0e                	jmp    8049e51 <driver_post+0x7f>
 8049e43:	66 c7 03 4f 4b       	movw   $0x4b4f,(%ebx)
 8049e48:	c6 43 02 00          	movb   $0x0,0x2(%ebx)
 8049e4c:	b8 00 00 00 00       	mov    $0x0,%eax
 8049e51:	83 c4 24             	add    $0x24,%esp
 8049e54:	5b                   	pop    %ebx
 8049e55:	5d                   	pop    %ebp
 8049e56:	c3                   	ret    

08049e57 <hash>:
 8049e57:	55                   	push   %ebp
 8049e58:	89 e5                	mov    %esp,%ebp
 8049e5a:	8b 4d 08             	mov    0x8(%ebp),%ecx
 8049e5d:	0f b6 11             	movzbl (%ecx),%edx
 8049e60:	b8 00 00 00 00       	mov    $0x0,%eax
 8049e65:	84 d2                	test   %dl,%dl
 8049e67:	74 13                	je     8049e7c <hash+0x25>
 8049e69:	6b c0 67             	imul   $0x67,%eax,%eax
 8049e6c:	0f be d2             	movsbl %dl,%edx
 8049e6f:	8d 04 02             	lea    (%edx,%eax,1),%eax
 8049e72:	83 c1 01             	add    $0x1,%ecx
 8049e75:	0f b6 11             	movzbl (%ecx),%edx
 8049e78:	84 d2                	test   %dl,%dl
 8049e7a:	75 ed                	jne    8049e69 <hash+0x12>
 8049e7c:	5d                   	pop    %ebp
 8049e7d:	c3                   	ret    

08049e7e <check>:
 8049e7e:	55                   	push   %ebp
 8049e7f:	89 e5                	mov    %esp,%ebp
 8049e81:	8b 55 08             	mov    0x8(%ebp),%edx
 8049e84:	89 d1                	mov    %edx,%ecx
 8049e86:	c1 e9 1c             	shr    $0x1c,%ecx
 8049e89:	b8 00 00 00 00       	mov    $0x0,%eax
 8049e8e:	85 c9                	test   %ecx,%ecx
 8049e90:	74 23                	je     8049eb5 <check+0x37>
 8049e92:	80 fa 0a             	cmp    $0xa,%dl
 8049e95:	74 1e                	je     8049eb5 <check+0x37>
 8049e97:	0f b6 ce             	movzbl %dh,%ecx
 8049e9a:	83 f9 0a             	cmp    $0xa,%ecx
 8049e9d:	74 16                	je     8049eb5 <check+0x37>
 8049e9f:	89 d1                	mov    %edx,%ecx
 8049ea1:	c1 e9 10             	shr    $0x10,%ecx
 8049ea4:	80 f9 0a             	cmp    $0xa,%cl
 8049ea7:	74 0c                	je     8049eb5 <check+0x37>
 8049ea9:	c1 ea 18             	shr    $0x18,%edx
 8049eac:	83 fa 0a             	cmp    $0xa,%edx
 8049eaf:	0f 95 c0             	setne  %al
 8049eb2:	0f b6 c0             	movzbl %al,%eax
 8049eb5:	5d                   	pop    %ebp
 8049eb6:	c3                   	ret    

08049eb7 <gencookie>:
 8049eb7:	55                   	push   %ebp
 8049eb8:	89 e5                	mov    %esp,%ebp
 8049eba:	53                   	push   %ebx
 8049ebb:	83 ec 14             	sub    $0x14,%esp
 8049ebe:	8b 45 08             	mov    0x8(%ebp),%eax
 8049ec1:	89 04 24             	mov    %eax,(%esp)
 8049ec4:	e8 8e ff ff ff       	call   8049e57 <hash>
 8049ec9:	89 04 24             	mov    %eax,(%esp)
 8049ecc:	e8 9f ea ff ff       	call   8048970 <srand@plt>
 8049ed1:	e8 3a eb ff ff       	call   8048a10 <rand@plt>
 8049ed6:	89 c3                	mov    %eax,%ebx
 8049ed8:	89 04 24             	mov    %eax,(%esp)
 8049edb:	e8 9e ff ff ff       	call   8049e7e <check>
 8049ee0:	85 c0                	test   %eax,%eax
 8049ee2:	74 ed                	je     8049ed1 <gencookie+0x1a>
 8049ee4:	89 d8                	mov    %ebx,%eax
 8049ee6:	83 c4 14             	add    $0x14,%esp
 8049ee9:	5b                   	pop    %ebx
 8049eea:	5d                   	pop    %ebp
 8049eeb:	c3                   	ret    
 8049eec:	66 90                	xchg   %ax,%ax
 8049eee:	66 90                	xchg   %ax,%ax

08049ef0 <__libc_csu_init>:
 8049ef0:	55                   	push   %ebp
 8049ef1:	57                   	push   %edi
 8049ef2:	31 ff                	xor    %edi,%edi
 8049ef4:	56                   	push   %esi
 8049ef5:	53                   	push   %ebx
 8049ef6:	e8 d5 eb ff ff       	call   8048ad0 <__x86.get_pc_thunk.bx>
 8049efb:	81 c3 ed 11 00 00    	add    $0x11ed,%ebx
 8049f01:	83 ec 1c             	sub    $0x1c,%esp
 8049f04:	8b 6c 24 30          	mov    0x30(%esp),%ebp
 8049f08:	8d b3 18 ff ff ff    	lea    -0xe8(%ebx),%esi
 8049f0e:	e8 2d e9 ff ff       	call   8048840 <_init>
 8049f13:	8d 83 18 ff ff ff    	lea    -0xe8(%ebx),%eax
 8049f19:	29 c6                	sub    %eax,%esi
 8049f1b:	c1 fe 02             	sar    $0x2,%esi
 8049f1e:	85 f6                	test   %esi,%esi
 8049f20:	74 27                	je     8049f49 <__libc_csu_init+0x59>
 8049f22:	8d b6 00 00 00 00    	lea    0x0(%esi),%esi
 8049f28:	8b 44 24 38          	mov    0x38(%esp),%eax
 8049f2c:	89 2c 24             	mov    %ebp,(%esp)
 8049f2f:	89 44 24 08          	mov    %eax,0x8(%esp)
 8049f33:	8b 44 24 34          	mov    0x34(%esp),%eax
 8049f37:	89 44 24 04          	mov    %eax,0x4(%esp)
 8049f3b:	ff 94 bb 18 ff ff ff 	call   *-0xe8(%ebx,%edi,4)
 8049f42:	83 c7 01             	add    $0x1,%edi
 8049f45:	39 f7                	cmp    %esi,%edi
 8049f47:	75 df                	jne    8049f28 <__libc_csu_init+0x38>
 8049f49:	83 c4 1c             	add    $0x1c,%esp
 8049f4c:	5b                   	pop    %ebx
 8049f4d:	5e                   	pop    %esi
 8049f4e:	5f                   	pop    %edi
 8049f4f:	5d                   	pop    %ebp
 8049f50:	c3                   	ret    
 8049f51:	eb 0d                	jmp    8049f60 <__libc_csu_fini>
 8049f53:	90                   	nop
 8049f54:	90                   	nop
 8049f55:	90                   	nop
 8049f56:	90                   	nop
 8049f57:	90                   	nop
 8049f58:	90                   	nop
 8049f59:	90                   	nop
 8049f5a:	90                   	nop
 8049f5b:	90                   	nop
 8049f5c:	90                   	nop
 8049f5d:	90                   	nop
 8049f5e:	90                   	nop
 8049f5f:	90                   	nop

08049f60 <__libc_csu_fini>:
 8049f60:	f3 c3                	repz ret 
 8049f62:	66 90                	xchg   %ax,%ax
 8049f64:	66 90                	xchg   %ax,%ax
 8049f66:	66 90                	xchg   %ax,%ax
 8049f68:	66 90                	xchg   %ax,%ax
 8049f6a:	66 90                	xchg   %ax,%ax
 8049f6c:	66 90                	xchg   %ax,%ax
 8049f6e:	66 90                	xchg   %ax,%ax

08049f70 <__do_global_ctors_aux>:
 8049f70:	55                   	push   %ebp
 8049f71:	89 e5                	mov    %esp,%ebp
 8049f73:	53                   	push   %ebx
 8049f74:	83 ec 04             	sub    $0x4,%esp
 8049f77:	a1 00 b0 04 08       	mov    0x804b000,%eax
 8049f7c:	83 f8 ff             	cmp    $0xffffffff,%eax
 8049f7f:	74 13                	je     8049f94 <__do_global_ctors_aux+0x24>
 8049f81:	bb 00 b0 04 08       	mov    $0x804b000,%ebx
 8049f86:	66 90                	xchg   %ax,%ax
 8049f88:	83 eb 04             	sub    $0x4,%ebx
 8049f8b:	ff d0                	call   *%eax
 8049f8d:	8b 03                	mov    (%ebx),%eax
 8049f8f:	83 f8 ff             	cmp    $0xffffffff,%eax
 8049f92:	75 f4                	jne    8049f88 <__do_global_ctors_aux+0x18>
 8049f94:	83 c4 04             	add    $0x4,%esp
 8049f97:	5b                   	pop    %ebx
 8049f98:	5d                   	pop    %ebp
 8049f99:	c3                   	ret    

Disassembly of section .fini:

08049f9c <_fini>:
 8049f9c:	53                   	push   %ebx
 8049f9d:	83 ec 08             	sub    $0x8,%esp
 8049fa0:	e8 2b eb ff ff       	call   8048ad0 <__x86.get_pc_thunk.bx>
 8049fa5:	81 c3 43 11 00 00    	add    $0x1143,%ebx
 8049fab:	e8 30 eb ff ff       	call   8048ae0 <__do_global_dtors_aux>
 8049fb0:	83 c4 08             	add    $0x8,%esp
 8049fb3:	5b                   	pop    %ebx
 8049fb4:	c3                   	ret    
